 flightControlSystem_sfun

 Timestamp is 5d6000f2 (Fri Aug 23 20:36:26 2019)

 Preferred load address is 0000000180000000

 Start         Length     Name                   Class
 0001:00000000 00055220H .text$mn                CODE
 0001:00055220 00000012H .text$mn$00             CODE
 0001:00055232 00000081H .text$x                 CODE
 0002:00000000 00000720H .idata$5                DATA
 0002:00000720 00000010H .00cfg                  DATA
 0002:00000730 00000008H .CRT$XCA                DATA
 0002:00000738 00000008H .CRT$XCZ                DATA
 0002:00000740 00000008H .CRT$XIA                DATA
 0002:00000748 00000008H .CRT$XIZ                DATA
 0002:00000750 00000008H .CRT$XPA                DATA
 0002:00000758 00000008H .CRT$XPZ                DATA
 0002:00000760 00000008H .CRT$XTA                DATA
 0002:00000768 00000008H .CRT$XTZ                DATA
 0002:00000770 00000000H .gfids$y                DATA
 0002:00000770 000006a0H .rdata                  DATA
 0002:00000e10 00000218H .rdata$zzzdbg           DATA
 0002:00001028 00000008H .rtc$IAA                DATA
 0002:00001030 00000008H .rtc$IZZ                DATA
 0002:00001038 00000008H .rtc$TAA                DATA
 0002:00001040 00000008H .rtc$TZZ                DATA
 0002:00001048 00000e68H .xdata                  DATA
 0002:00001eb0 00000084H .edata                  DATA
 0002:00001f34 000001ccH .idata$2                DATA
 0002:00002100 00000018H .idata$3                DATA
 0002:00002118 00000720H .idata$4                DATA
 0002:00002838 000014acH .idata$6                DATA
 0003:00000000 0000d9f0H .data                   DATA
 0003:0000d9f0 00000658H .bss                    DATA
 0004:00000000 0000114cH .pdata                  DATA

  Address         Publics by Value              Rva+Base               Lib:Object

 0000:00000000       __guard_iat_count          0000000000000000     <absolute>
 0000:00000000       __guard_fids_count         0000000000000000     <absolute>
 0000:00000000       ___safe_se_handler_count   0000000000000000     <absolute>
 0000:00000000       __hybrid_auxiliary_iat     0000000000000000     <absolute>
 0000:00000000       __enclave_config           0000000000000000     <absolute>
 0000:00000000       __guard_longjmp_table      0000000000000000     <absolute>
 0000:00000000       ___safe_se_handler_table   0000000000000000     <absolute>
 0000:00000000       __hybrid_code_map_count    0000000000000000     <absolute>
 0000:00000000       __dynamic_value_reloc_table 0000000000000000     <absolute>
 0000:00000000       __guard_longjmp_count      0000000000000000     <absolute>
 0000:00000000       __guard_iat_table          0000000000000000     <absolute>
 0000:00000000       __guard_fids_table         0000000000000000     <absolute>
 0000:00000000       __hybrid_code_map          0000000000000000     <absolute>
 0000:00000100       __guard_flags              0000000000000100     <absolute>
 0000:00000000       __ImageBase                0000000180000000     <linker-defined>
 0001:00000000       flightControlSystem_initializer 0000000180001000 f   flightControlSystem_sfun.obj
 0001:00000010       flightControlSystem_terminator 0000000180001010 f   flightControlSystem_sfun.obj
 0001:00000020       load_flightControlSystem_optimization_info 0000000180001020 f   flightControlSystem_sfun.obj
 0001:000000d0       unload_flightControlSystem_optimization_info 00000001800010d0 f   flightControlSystem_sfun.obj
 0001:00000100       sf_flightControlSystem_method_dispatcher 0000000180001100 f   flightControlSystem_sfun.obj
 0001:00000150       sf_flightControlSystem_process_check_sum_call 0000000180001150 f   flightControlSystem_sfun.obj
 0001:00000640       sf_flightControlSystem_get_eml_resolved_functions_info 0000000180001640 f   flightControlSystem_sfun.obj
 0001:00000820       sf_flightControlSystem_third_party_uses_info 0000000180001820 f   flightControlSystem_sfun.obj
 0001:000009f0       sf_flightControlSystem_jit_fallback_info 00000001800019f0 f   flightControlSystem_sfun.obj
 0001:00000bc0       sf_flightControlSystem_get_post_codegen_info 0000000180001bc0 f   flightControlSystem_sfun.obj
 0001:00000da0       sf_flightControlSystem_updateBuildInfo_args_info 0000000180001da0 f   flightControlSystem_sfun.obj
 0001:00000f70       flightControlSystem_debug_initialize 0000000180001f70 f   flightControlSystem_sfun.obj
 0001:00000ff0       flightControlSystem_register_exported_symbols 0000000180001ff0 f   flightControlSystem_sfun.obj
 0001:00001000       sf_c2_flightControlSystem_get_eml_resolved_functions_info 0000000180002000 f   c2_flightControlSystem.obj
 0001:00001080       sf_c2_flightControlSystem_get_check_sum 0000000180002080 f   c2_flightControlSystem.obj
 0001:00001150       c2_flightControlSystem_method_dispatcher 0000000180002150 f   c2_flightControlSystem.obj
 0001:00049bb0       sf_c2_flightControlSystem_third_party_uses_info 000000018004abb0 f   c2_flightControlSystem.obj
 0001:00049d10       sf_c2_flightControlSystem_jit_fallback_info 000000018004ad10 f   c2_flightControlSystem.obj
 0001:00049ea0       sf_c2_flightControlSystem_updateBuildInfo_args_info 000000018004aea0 f   c2_flightControlSystem.obj
 0001:0004a200       sf_c2_flightControlSystem_get_post_codegen_info 000000018004b200 f   c2_flightControlSystem.obj
 0001:0004a550       mexFunction                000000018004b550 f   flightControlSystem_sfun_registry.obj
 0001:0004caf0       _ssSetInputPortDirectFeedThroughFcn 000000018004daf0 f   flightControlSystem_sfun_registry.obj
 0001:0004cc60       _ssSetRWorkValueFcn        000000018004dc60 f   flightControlSystem_sfun_registry.obj
 0001:0004cce0       _ssGetRWorkValueFcn        000000018004dce0 f   flightControlSystem_sfun_registry.obj
 0001:0004cd50       _ssSetIWorkValueFcn        000000018004dd50 f   flightControlSystem_sfun_registry.obj
 0001:0004cdd0       _ssGetIWorkValueFcn        000000018004ddd0 f   flightControlSystem_sfun_registry.obj
 0001:0004ce40       _ssSetPWorkValueFcn        000000018004de40 f   flightControlSystem_sfun_registry.obj
 0001:0004cec0       _ssGetPWorkValueFcn        000000018004dec0 f   flightControlSystem_sfun_registry.obj
 0001:0004cf30       _ssGetInputPortSignalFcn   000000018004df30 f   flightControlSystem_sfun_registry.obj
 0001:0004d2c0       _ssGetInputPortBufferDstPortFcn 000000018004e2c0 f   flightControlSystem_sfun_registry.obj
 0001:0004d340       _ssGetInputPortSignalPtrsFcn 000000018004e340 f   flightControlSystem_sfun_registry.obj
 0001:0004d6d0       ssGetParameterTuningCompliance 000000018004e6d0 f   flightControlSystem_sfun_registry.obj
 0001:0004d740       ssGetDTypeIdFromMxArray    000000018004e740 f   flightControlSystem_sfun_registry.obj
 0001:0004d860       ssWriteRTWMx2dMatParam     000000018004e860 f   flightControlSystem_sfun_registry.obj
 0001:0004d8f0       ssWriteRTWMxVectParam      000000018004e8f0 f   flightControlSystem_sfun_registry.obj
 0001:0004d970       ssWriteRTWParameters       000000018004e970 f   flightControlSystem_sfun_registry.obj
 0001:0004df30       ssWriteRTWParamSettings    000000018004ef30 f   flightControlSystem_sfun_registry.obj
 0001:0004e620       ssWriteRTWStr              000000018004f620 f   flightControlSystem_sfun_registry.obj
 0001:0004e680       ssWriteRTWWorkVect         000000018004f680 f   flightControlSystem_sfun_registry.obj
 0001:0004ebe0       ssWarning                  000000018004fbe0 f   flightControlSystem_sfun_registry.obj
 0001:0004ecd0       ssWriteRTWNameValuePair    000000018004fcd0 f   flightControlSystem_sfun_registry.obj
 0001:0004f1d0       _ssSetInputPortMatrixDimensions 00000001800501d0 f   flightControlSystem_sfun_registry.obj
 0001:0004f2f0       _ssSetOutputPortMatrixDimensions 00000001800502f0 f   flightControlSystem_sfun_registry.obj
 0001:0004f410       _ssSetInputPortVectorDimension 0000000180050410 f   flightControlSystem_sfun_registry.obj
 0001:0004f4c0       _ssSetOutputPortVectorDimension 00000001800504c0 f   flightControlSystem_sfun_registry.obj
 0001:0004f570       ssIsRunTimeParamTunable    0000000180050570 f   flightControlSystem_sfun_registry.obj
 0001:0004f5e0       ssGetSFuncBlockHandle      00000001800505e0 f   flightControlSystem_sfun_registry.obj
 0001:0004f650       _ssGetCurrentInputPortWidth 0000000180050650 f   flightControlSystem_sfun_registry.obj
 0001:0004f770       _ssGetCurrentOutputPortWidth 0000000180050770 f   flightControlSystem_sfun_registry.obj
 0001:0004f890       _ssGetCallSystemNumFcnCallDestinations 0000000180050890 f   flightControlSystem_sfun_registry.obj
 0001:0004f900       ssGetIsZeroCrossControlDisabled 0000000180050900 f   flightControlSystem_sfun_registry.obj
 0001:0004f970       ssSetIsInputPortUsedForContZcSignal 0000000180050970 f   flightControlSystem_sfun_registry.obj
 0001:0004f9e0       ssSetZcSignalIsZcElementDisc 00000001800509e0 f   flightControlSystem_sfun_registry.obj
 0001:0004fa90       ssSetZcSignalName          0000000180050a90 f   flightControlSystem_sfun_registry.obj
 0001:0004fb00       ssSetZcSignalWidth         0000000180050b00 f   flightControlSystem_sfun_registry.obj
 0001:0004fb70       ssSetZcSignalZcEventType   0000000180050b70 f   flightControlSystem_sfun_registry.obj
 0001:0004fbe0       ssSetZcSignalType          0000000180050be0 f   flightControlSystem_sfun_registry.obj
 0001:0004fc50       ssSetZcSignalZcTol         0000000180050c50 f   flightControlSystem_sfun_registry.obj
 0001:0004fcc0       ssSetZcSignalNeedsEventNotification 0000000180050cc0 f   flightControlSystem_sfun_registry.obj
 0001:0004fd30       ssCreateAndAddZcSignalInfo 0000000180050d30 f   flightControlSystem_sfun_registry.obj
 0001:0004fda0       ssCloneAndAddZcSignalInfo  0000000180050da0 f   flightControlSystem_sfun_registry.obj
 0001:0004fe10       ssGetNumZcSignals          0000000180050e10 f   flightControlSystem_sfun_registry.obj
 0001:0004fe80       ssGetZcSignalVector        0000000180050e80 f   flightControlSystem_sfun_registry.obj
 0001:0004fef0       ssGetZcSignalName          0000000180050ef0 f   flightControlSystem_sfun_registry.obj
 0001:0004ff60       ssGetZcSignalWidth         0000000180050f60 f   flightControlSystem_sfun_registry.obj
 0001:0004ffd0       ssGetZcSignalZcEventType   0000000180050fd0 f   flightControlSystem_sfun_registry.obj
 0001:00050040       ssGetZcSignalZcEvents      0000000180051040 f   flightControlSystem_sfun_registry.obj
 0001:000500b0       ssGetZcSignalType          00000001800510b0 f   flightControlSystem_sfun_registry.obj
 0001:00050120       ssGetZcSignalZcTol         0000000180051120 f   flightControlSystem_sfun_registry.obj
 0001:000501a0       ssGetZcSignalNeedsEventNotification 00000001800511a0 f   flightControlSystem_sfun_registry.obj
 0001:00050210       ssGetZcSignalIsZcElementDisc 0000000180051210 f   flightControlSystem_sfun_registry.obj
 0001:000502b0       ssGetIsInputPortElementContinuous 00000001800512b0 f   flightControlSystem_sfun_registry.obj
 0001:00050350       _ssGetAbsTol               0000000180051350 f   flightControlSystem_sfun_registry.obj
 0001:000503c0       _ssSetStateAbsTol          00000001800513c0 f   flightControlSystem_sfun_registry.obj
 0001:000504a0       _ssSetInputPortReusableFcn 00000001800514a0 f   flightControlSystem_sfun_registry.obj
 0001:000505a0       _ssSetOutputPortReusableFcn 00000001800515a0 f   flightControlSystem_sfun_registry.obj
 0001:000506a0       _ssSetSymbolicDimsSupport  00000001800516a0 f   flightControlSystem_sfun_registry.obj
 0001:00050710       _ssRegisterSymbolicDimsExpr 0000000180051710 f   flightControlSystem_sfun_registry.obj
 0001:00050790       _ssRegisterSymbolicDims    0000000180051790 f   flightControlSystem_sfun_registry.obj
 0001:00050830       _ssRegisterSymbolicDimsString 0000000180051830 f   flightControlSystem_sfun_registry.obj
 0001:000508b0       _ssRegisterSymbolicDimsIntValue 00000001800518b0 f   flightControlSystem_sfun_registry.obj
 0001:00050920       _ssRegisterSymbolicDimsPlus 0000000180051920 f   flightControlSystem_sfun_registry.obj
 0001:000509a0       _ssRegisterSymbolicDimsMinus 00000001800519a0 f   flightControlSystem_sfun_registry.obj
 0001:00050a20       _ssRegisterSymbolicDimsMultiply 0000000180051a20 f   flightControlSystem_sfun_registry.obj
 0001:00050aa0       _ssRegisterSymbolicDimsDivide 0000000180051aa0 f   flightControlSystem_sfun_registry.obj
 0001:00050b20       _ssGetNumSymbolicDims      0000000180051b20 f   flightControlSystem_sfun_registry.obj
 0001:00050b90       _ssGetSymbolicDim          0000000180051b90 f   flightControlSystem_sfun_registry.obj
 0001:00050c10       _ssSetInputPortSymbolicDimsId 0000000180051c10 f   flightControlSystem_sfun_registry.obj
 0001:00050c80       _ssGetCompInputPortSymbolicDimsId 0000000180051c80 f   flightControlSystem_sfun_registry.obj
 0001:00050cf0       _ssSetCompInputPortSymbolicDimsId 0000000180051cf0 f   flightControlSystem_sfun_registry.obj
 0001:00050d60       _ssSetOutputPortSymbolicDimsId 0000000180051d60 f   flightControlSystem_sfun_registry.obj
 0001:00050dd0       _ssGetCompOutputPortSymbolicDimsId 0000000180051dd0 f   flightControlSystem_sfun_registry.obj
 0001:00050e40       _ssSetCompOutputPortSymbolicDimsId 0000000180051e40 f   flightControlSystem_sfun_registry.obj
 0001:00050eb0       _ssSetCompDWorkSymbolicDimsId 0000000180051eb0 f   flightControlSystem_sfun_registry.obj
 0001:00050f20       sf_process_check_sum_call  0000000180051f20 f   flightControlSystem_sfun_registry.obj
 0001:00050f70       sf_process_get_third_party_uses_info_call 0000000180051f70 f   flightControlSystem_sfun_registry.obj
 0001:000511a0       sf_process_get_jit_fallback_info_call 00000001800521a0 f   flightControlSystem_sfun_registry.obj
 0001:000513d0       sf_process_get_post_codegen_info_call 00000001800523d0 f   flightControlSystem_sfun_registry.obj
 0001:00051600       sf_process_get_updateBuildInfo_args_info_call 0000000180052600 f   flightControlSystem_sfun_registry.obj
 0001:00051830       sf_process_get_eml_resolved_functions_info_call 0000000180052830 f   flightControlSystem_sfun_registry.obj
 0001:00051a60       sf_mex_unlock_call         0000000180052a60 f   flightControlSystem_sfun_registry.obj
 0001:00051d00       sf_machine_global_initializer_called 0000000180052d00 f   flightControlSystem_sfun_registry.obj
 0001:00051d30       sf_machine_global_method_dispatcher 0000000180052d30 f   flightControlSystem_sfun_registry.obj
 0001:00051d90       sf_machine_global_terminator 0000000180052d90 f   flightControlSystem_sfun_registry.obj
 0001:00051de0       sf_register_machine_exported_symbols 0000000180052de0 f   flightControlSystem_sfun_registry.obj
 0001:00051e00       callCustomFcn              0000000180052e00 f   flightControlSystem_sfun_registry.obj
 0001:00051e10       sf_machine_global_initializer 0000000180052e10 f   flightControlSystem_sfun_registry.obj
 0001:00051e90       mdlGetSimState             0000000180052e90 f   flightControlSystem_sfun_registry.obj
 0001:00051ed0       mdlSetSimState             0000000180052ed0 f   flightControlSystem_sfun_registry.obj
 0001:00052740       ProcessMexSfunctionEveryCall 0000000180053740 f   flightControlSystem_sfun_registry.obj
 0001:00053850       __local_stdio_printf_options 0000000180054850 f i flightControlSystem_sfun_registry.obj
 0001:00053860       _vsnprintf_l               0000000180054860 f i flightControlSystem_sfun_registry.obj
 0001:000538e0       _vsprintf_l                00000001800548e0 f i flightControlSystem_sfun_registry.obj
 0001:00053930       sprintf                    0000000180054930 f i flightControlSystem_sfun_registry.obj
 0001:00053980       mexfilerequiredapiversion  0000000180054980 f   c_mexapi_version.obj
 0001:000539a1       bwlookup_tbb_boolean       00000001800549a1 f   libmwbwlookup_tbb:libmwbwlookup_tbb.dll
 0001:000539a7       cannythresholding_real32_tbb 00000001800549a7 f   libmwcannythresholding_tbb:libmwcannythresholding_tbb.dll
 0001:000539ad       grayto8_real64             00000001800549ad f   libmwgrayto8:libmwgrayto8.dll
 0001:000539b3       grayto8_real32             00000001800549b3 f   libmwgrayto8:libmwgrayto8.dll
 0001:000539b9       ippfilter_real32           00000001800549b9 f   libmwippfilter:libmwippfilter.dll
 0001:000539bf       getnumcores                00000001800549bf f   libmwgetnumcores:libmwgetnumcores.dll
 0001:000539c5       imfilter_real32            00000001800549c5 f   libmwimfilter:libmwimfilter.dll
 0001:000539cb       imregionalmax_real64       00000001800549cb f   libmwimregionalmax:libmwimregionalmax.dll
 0001:000539d1       ordfilt2_real64            00000001800549d1 f   libmwordfilt2:libmwordfilt2.dll
 0001:000539d7       ippreconstruct_uint8       00000001800549d7 f   libmwippreconstruct:libmwippreconstruct.dll
 0001:000539dd       ippreconstruct_real64      00000001800549dd f   libmwippreconstruct:libmwippreconstruct.dll
 0001:000539e3       sf_load_rtw_optimization_info 00000001800549e3 f   sf_runtime:sf_runtime.dll
 0001:000539e9       sf_mex_decode              00000001800549e9 f   sf_runtime:sf_runtime.dll
 0001:000539ef       sf_debug_initialize_machine 00000001800549ef f   sf_runtime:sf_runtime.dll
 0001:000539f5       sf_debug_set_machine_event_thresholds 00000001800549f5 f   sf_runtime:sf_runtime.dll
 0001:000539fb       sf_debug_set_machine_data_thresholds 00000001800549fb f   sf_runtime:sf_runtime.dll
 0001:00053a01       sf_init_ChartRunTimeInfo   0000000180054a01 f   sf_runtime:sf_runtime.dll
 0001:00053a07       sf_free_ChartRunTimeInfo   0000000180054a07 f   sf_runtime:sf_runtime.dll
 0001:00053a0d       sfrtGetEmlrtCtx            0000000180054a0d f   sf_runtime:sf_runtime.dll
 0001:00053a13       sfrtGetCovrtInstance       0000000180054a13 f   sf_runtime:sf_runtime.dll
 0001:00053a19       sf_get_chart_instance_ptr  0000000180054a19 f   sf_runtime:sf_runtime.dll
 0001:00053a1f       sim_mode_is_rtw_gen        0000000180054a1f f   sf_runtime:sf_runtime.dll
 0001:00053a25       sim_mode_is_external       0000000180054a25 f   sf_runtime:sf_runtime.dll
 0001:00053a2b       sf_mex_listen_for_ctrl_c   0000000180054a2b f   sf_runtime:sf_runtime.dll
 0001:00053a31       sf_clear_rtw_identifier    0000000180054a31 f   sf_runtime:sf_runtime.dll
 0001:00053a37       sf_get_time                0000000180054a37 f   sf_runtime:sf_runtime.dll
 0001:00053a3d       sf_is_first_init_cond      0000000180054a3d f   sf_runtime:sf_runtime.dll
 0001:00053a43       setLegacyDebuggerFlag      0000000180054a43 f   sf_runtime:sf_runtime.dll
 0001:00053a49       setDebuggerFlag            0000000180054a49 f   sf_runtime:sf_runtime.dll
 0001:00053a4f       sf_set_work_widths         0000000180054a4f f   sf_runtime:sf_runtime.dll
 0001:00053a55       sfListenerCacheSimStruct   0000000180054a55 f   sf_runtime:sf_runtime.dll
 0001:00053a5b       sfListenerLightTerminate   0000000180054a5b f   sf_runtime:sf_runtime.dll
 0001:00053a61       sf_mex_call_debug          0000000180054a61 f   sf_runtime:sf_runtime.dll
 0001:00053a67       sf_mex_error_message       0000000180054a67 f   sf_runtime:sf_runtime.dll
 0001:00053a6d       sf_mex_getfield            0000000180054a6d f   sf_runtime:sf_runtime.dll
 0001:00053a73       sf_mex_setfieldbynum       0000000180054a73 f   sf_runtime:sf_runtime.dll
 0001:00053a79       sf_mex_createfield         0000000180054a79 f   sf_runtime:sf_runtime.dll
 0001:00053a7f       sf_mex_check_struct_vs     0000000180054a7f f   sf_runtime:sf_runtime.dll
 0001:00053a85       sf_mex_createstructarray   0000000180054a85 f   sf_runtime:sf_runtime.dll
 0001:00053a8b       sf_mex_create              0000000180054a8b f   sf_runtime:sf_runtime.dll
 0001:00053a91       sf_mex_createcellmatrix    0000000180054a91 f   sf_runtime:sf_runtime.dll
 0001:00053a97       sf_mex_setcell             0000000180054a97 f   sf_runtime:sf_runtime.dll
 0001:00053a9d       sf_mex_getcell             0000000180054a9d f   sf_runtime:sf_runtime.dll
 0001:00053aa3       sf_mex_assign              0000000180054aa3 f   sf_runtime:sf_runtime.dll
 0001:00053aa9       sf_mex_dup                 0000000180054aa9 f   sf_runtime:sf_runtime.dll
 0001:00053aaf       sf_mex_destroy             0000000180054aaf f   sf_runtime:sf_runtime.dll
 0001:00053ab5       sf_mex_import              0000000180054ab5 f   sf_runtime:sf_runtime.dll
 0001:00053abb       sf_mex_import_vs           0000000180054abb f   sf_runtime:sf_runtime.dll
 0001:00053ac1       sf_mex_get_dimension       0000000180054ac1 f   sf_runtime:sf_runtime.dll
 0001:00053ac7       ssGetInputPortSignal_wrapper 0000000180054ac7 f   sf_runtime:sf_runtime.dll
 0001:00053acd       ssGetOutputPortSignal_wrapper 0000000180054acd f   sf_runtime:sf_runtime.dll
 0001:00053ad3       sf_eml_array_bounds_check  0000000180054ad3 f   sf_runtime:sf_runtime.dll
 0001:00053ad9       sf_integer_check           0000000180054ad9 f   sf_runtime:sf_runtime.dll
 0001:00053adf       sf_debug_initialize_chart  0000000180054adf f   sf_runtime:sf_runtime.dll
 0001:00053ae5       sf_debug_call              0000000180054ae5 f   sf_runtime:sf_runtime.dll
 0001:00053aeb       eml_debug_line_call        0000000180054aeb f   sf_runtime:sf_runtime.dll
 0001:00053af1       sf_debug_reset_current_state_configuration 0000000180054af1 f   sf_runtime:sf_runtime.dll
 0001:00053af7       sf_debug_set_chart_data_props 0000000180054af7 f   sf_runtime:sf_runtime.dll
 0001:00053afd       sf_debug_set_chart_data_compiled_props 0000000180054afd f   sf_runtime:sf_runtime.dll
 0001:00053b03       sf_debug_symbol_scope_push 0000000180054b03 f   sf_runtime:sf_runtime.dll
 0001:00053b09       sf_debug_symbol_scope_push_eml 0000000180054b09 f   sf_runtime:sf_runtime.dll
 0001:00053b0f       sf_debug_symbol_scope_pop  0000000180054b0f f   sf_runtime:sf_runtime.dll
 0001:00053b15       sf_debug_symbol_scope_add_eml 0000000180054b15 f   sf_runtime:sf_runtime.dll
 0001:00053b1b       sf_debug_symbol_scope_add_eml_importable 0000000180054b1b f   sf_runtime:sf_runtime.dll
 0001:00053b21       sf_debug_symbol_scope_add_eml_dyn_emx_importable 0000000180054b21 f   sf_runtime:sf_runtime.dll
 0001:00053b27       sf_debug_set_instance_data_value_ptr 0000000180054b27 f   sf_runtime:sf_runtime.dll
 0001:00053b2d       sf_debug_set_chart_disable_implicit_casting 0000000180054b2d f   sf_runtime:sf_runtime.dll
 0001:00053b33       sf_debug_set_chart_event_thresholds 0000000180054b33 f   sf_runtime:sf_runtime.dll
 0001:00053b39       sf_debug_set_chart_state_info 0000000180054b39 f   sf_runtime:sf_runtime.dll
 0001:00053b3f       sf_debug_set_chart_decomposition 0000000180054b3f f   sf_runtime:sf_runtime.dll
 0001:00053b45       sf_debug_set_chart_substate_count 0000000180054b45 f   sf_runtime:sf_runtime.dll
 0001:00053b4b       sf_debug_size_eq_check_1d  0000000180054b4b f   sf_runtime:sf_runtime.dll
 0001:00053b51       sf_debug_size_eq_check_nd  0000000180054b51 f   sf_runtime:sf_runtime.dll
 0001:00053b57       sf_debug_sub_assign_size_check_1d 0000000180054b57 f   sf_runtime:sf_runtime.dll
 0001:00053b5d       sf_debug_sub_assign_size_check_nd 0000000180054b5d f   sf_runtime:sf_runtime.dll
 0001:00053b63       sf_debug_for_loop_vector_check 0000000180054b63 f   sf_runtime:sf_runtime.dll
 0001:00053b69       sf_debug_non_negative_check 0000000180054b69 f   sf_runtime:sf_runtime.dll
 0001:00053b6f       sf_debug_data_range_wrapper 0000000180054b6f f   sf_runtime:sf_runtime.dll
 0001:00053b75       sf_debug_overflow_detection 0000000180054b75 f   sf_runtime:sf_runtime.dll
 0001:00053b7b       sf_get_ChartInfoStruct_CodeGen 0000000180054b7b f   sf_runtime:sf_runtime.dll
 0001:00053b81       sf_get_hasSeparateUpdateOutputs 0000000180054b81 f   sf_runtime:sf_runtime.dll
 0001:00053b87       callMdlMethodAndReportError 0000000180054b87 f   sf_runtime:sf_runtime.dll
 0001:00053b8d       call_sf_machine_global_method_dispatcher 0000000180054b8d f   sf_runtime:sf_runtime.dll
 0001:00053b93       getRuntimeInstanceInfoAsVoid 0000000180054b93 f   sf_runtime:sf_runtime.dll
 0001:00053b99       sf_mex_error_direct_call   0000000180054b99 f   sf_runtime:sf_runtime.dll
 0001:00053b9f       sf_clear_error_manager_info 0000000180054b9f f   sf_runtime:sf_runtime.dll
 0001:00053ba5       sf_debug_create_debug_instance_struct 0000000180054ba5 f   sf_runtime:sf_runtime.dll
 0001:00053bab       sf_debug_terminate         0000000180054bab f   sf_runtime:sf_runtime.dll
 0001:00053bb1       sf_debug_api               0000000180054bb1 f   sf_runtime:sf_runtime.dll
 0001:00053bb7       mxIsChar_800               0000000180054bb7 f   libmx:libmx.dll
 0001:00053bbd       mxGetScalar_800            0000000180054bbd f   libmx:libmx.dll
 0001:00053bc3       mxGetPr_800                0000000180054bc3 f   libmx:libmx.dll
 0001:00053bc9       mxDestroyArray_800         0000000180054bc9 f   libmx:libmx.dll
 0001:00053bcf       mxCreateDoubleMatrix_800   0000000180054bcf f   libmx:libmx.dll
 0001:00053bd5       mxGetString_800            0000000180054bd5 f   libmx:libmx.dll
 0001:00053bdb       mxDuplicateArray_800       0000000180054bdb f   libmx:libmx.dll
 0001:00053be1       mxSetCell_800              0000000180054be1 f   libmx:libmx.dll
 0001:00053be7       mxSetField_800             0000000180054be7 f   libmx:libmx.dll
 0001:00053bed       mxCreateString_800         0000000180054bed f   libmx:libmx.dll
 0001:00053bf3       mxCreateCellMatrix_800     0000000180054bf3 f   libmx:libmx.dll
 0001:00053bf9       mxCreateStructMatrix_800   0000000180054bf9 f   libmx:libmx.dll
 0001:00053bff       mxGetInf_800               0000000180054bff f   libmx:libmx.dll
 0001:00053c05       mxGetNaN_800               0000000180054c05 f   libmx:libmx.dll
 0001:00053c0b       mxCalloc_800               0000000180054c0b f   libmx:libmx.dll
 0001:00053c11       mxGetM_800                 0000000180054c11 f   libmx:libmx.dll
 0001:00053c17       mxGetClassID_800           0000000180054c17 f   libmx:libmx.dll
 0001:00053c1d       mxIsNumeric_800            0000000180054c1d f   libmx:libmx.dll
 0001:00053c23       mxIsComplex_800            0000000180054c23 f   libmx:libmx.dll
 0001:00053c29       mxGetN_800                 0000000180054c29 f   libmx:libmx.dll
 0001:00053c2f       mxCreateDoubleScalar_800   0000000180054c2f f   libmx:libmx.dll
 0001:00053c35       mexMakeArrayPersistent_800 0000000180054c35 f   libmex:libmex.dll
 0001:00053c3b       mexErrMsgTxt_800           0000000180054c3b f   libmex:libmex.dll
 0001:00053c41       mexWarnMsgTxt_800          0000000180054c41 f   libmex:libmex.dll
 0001:00053c47       mexCallMATLAB_800          0000000180054c47 f   libmex:libmex.dll
 0001:00053c4d       mexLock_800                0000000180054c4d f   libmex:libmex.dll
 0001:00053c53       mexUnlock_800              0000000180054c53 f   libmex:libmex.dll
 0001:00053c59       mexIsLocked_800            0000000180054c59 f   libmex:libmex.dll
 0001:00053c5f       utMalloc                   0000000180054c5f f   libut:libut.dll
 0001:00053c65       utFree                     0000000180054c65 f   libut:libut.dll
 0001:00053c6b       muDoubleScalarAbs          0000000180054c6b f   libmwmathutil:libmwmathutil.dll
 0001:00053c71       muDoubleScalarCeil         0000000180054c71 f   libmwmathutil:libmwmathutil.dll
 0001:00053c77       muDoubleScalarFloor        0000000180054c77 f   libmwmathutil:libmwmathutil.dll
 0001:00053c7d       muDoubleScalarRound        0000000180054c7d f   libmwmathutil:libmwmathutil.dll
 0001:00053c83       muDoubleScalarCos          0000000180054c83 f   libmwmathutil:libmwmathutil.dll
 0001:00053c89       muDoubleScalarExp          0000000180054c89 f   libmwmathutil:libmwmathutil.dll
 0001:00053c8f       muDoubleScalarAtan2        0000000180054c8f f   libmwmathutil:libmwmathutil.dll
 0001:00053c95       muDoubleScalarMax          0000000180054c95 f   libmwmathutil:libmwmathutil.dll
 0001:00053c9b       muDoubleScalarSin          0000000180054c9b f   libmwmathutil:libmwmathutil.dll
 0001:00053ca1       muDoubleScalarSign         0000000180054ca1 f   libmwmathutil:libmwmathutil.dll
 0001:00053ca7       muDoubleScalarRem          0000000180054ca7 f   libmwmathutil:libmwmathutil.dll
 0001:00053cad       muDoubleScalarHypot        0000000180054cad f   libmwmathutil:libmwmathutil.dll
 0001:00053cb3       muSingleScalarAbs          0000000180054cb3 f   libmwmathutil:libmwmathutil.dll
 0001:00053cb9       muSingleScalarCeil         0000000180054cb9 f   libmwmathutil:libmwmathutil.dll
 0001:00053cbf       muSingleScalarFloor        0000000180054cbf f   libmwmathutil:libmwmathutil.dll
 0001:00053cc5       muSingleScalarMax          0000000180054cc5 f   libmwmathutil:libmwmathutil.dll
 0001:00053ccb       muSingleScalarMin          0000000180054ccb f   libmwmathutil:libmwmathutil.dll
 0001:00053cd1       muSingleScalarHypot        0000000180054cd1 f   libmwmathutil:libmwmathutil.dll
 0001:00053cd7       muDoubleScalarIsNaN        0000000180054cd7 f   libmwmathutil:libmwmathutil.dll
 0001:00053cdd       muDoubleScalarIsInf        0000000180054cdd f   libmwmathutil:libmwmathutil.dll
 0001:00053ce3       muSingleScalarIsNaN        0000000180054ce3 f   libmwmathutil:libmwmathutil.dll
 0001:00053ce9       muSingleScalarIsInf        0000000180054ce9 f   libmwmathutil:libmwmathutil.dll
 0001:00053cef       emlrtLicenseCheckR2012b    0000000180054cef f   libemlrt:libemlrt.dll
 0001:00053cf5       emlrtSizeMulR2012b         0000000180054cf5 f   libemlrt:libemlrt.dll
 0001:00053cfb       emlrtMallocMex             0000000180054cfb f   libemlrt:libemlrt.dll
 0001:00053d01       emlrtCallocMex             0000000180054d01 f   libemlrt:libemlrt.dll
 0001:00053d07       emlrtFreeMex               0000000180054d07 f   libemlrt:libemlrt.dll
 0001:00053d0d       emlrtHeapAllocationErrorR2012b 0000000180054d0d f   libemlrt:libemlrt.dll
 0001:00053d13       covrtCreateStateflowInstanceData 0000000180054d13 f   libcovrt:libcovrt.dll
 0001:00053d19       covrtDeleteStateflowInstanceData 0000000180054d19 f   libcovrt:libcovrt.dll
 0001:00053d1f       covrtTransInitFcn          0000000180054d1f f   libcovrt:libcovrt.dll
 0001:00053d25       covrtStateInitFcn          0000000180054d25 f   libcovrt:libcovrt.dll
 0001:00053d2b       covrtChartInitFcn          0000000180054d2b f   libcovrt:libcovrt.dll
 0001:00053d31       covrtRelationalopUpdateFcn 0000000180054d31 f   libcovrt:libcovrt.dll
 0001:00053d37       covrtSigUpdateFcn          0000000180054d37 f   libcovrt:libcovrt.dll
 0001:00053d3d       covrtEmlInitFcn            0000000180054d3d f   libcovrt:libcovrt.dll
 0001:00053d43       covrtEmlFcnInitFcn         0000000180054d43 f   libcovrt:libcovrt.dll
 0001:00053d49       covrtEmlIfInitFcn          0000000180054d49 f   libcovrt:libcovrt.dll
 0001:00053d4f       covrtEmlForInitFcn         0000000180054d4f f   libcovrt:libcovrt.dll
 0001:00053d55       covrtEmlMCDCInitFcn        0000000180054d55 f   libcovrt:libcovrt.dll
 0001:00053d5b       covrtEmlRelationalInitFcn  0000000180054d5b f   libcovrt:libcovrt.dll
 0001:00053d61       covrtEmlFcnEval            0000000180054d61 f   libcovrt:libcovrt.dll
 0001:00053d67       covrtEmlIfEval             0000000180054d67 f   libcovrt:libcovrt.dll
 0001:00053d6d       covrtEmlForEval            0000000180054d6d f   libcovrt:libcovrt.dll
 0001:00053d73       covrtEmlCondEval           0000000180054d73 f   libcovrt:libcovrt.dll
 0001:00053d79       covrtEmlMcdcEval           0000000180054d79 f   libcovrt:libcovrt.dll
 0001:00053d80       __raise_securityfailure    0000000180054d80 f   MSVCRT:gs_report.obj
 0001:00053db4       __report_gsfailure         0000000180054db4 f   MSVCRT:gs_report.obj
 0001:00053e88       __report_rangecheckfailure 0000000180054e88 f   MSVCRT:gs_report.obj
 0001:00053e9c       __report_securityfailure   0000000180054e9c f   MSVCRT:gs_report.obj
 0001:00053f38       __report_securityfailureEx 0000000180054f38 f   MSVCRT:gs_report.obj
 0001:0005412c       __GSHandlerCheck           000000018005512c f   MSVCRT:_gshandler_.obj
 0001:0005414c       __GSHandlerCheckCommon     000000018005514c f   MSVCRT:_gshandler_.obj
 0001:000541c0       __security_check_cookie    00000001800551c0 f   MSVCRT:_amdsecgs_.obj
 0001:00054200       _alloca_probe              0000000180055200 f   MSVCRT:_chkstk_.obj
 0001:00054200       __chkstk                   0000000180055200 f   MSVCRT:_chkstk_.obj
 0001:00054590       _CRT_INIT                  0000000180055590 f   MSVCRT:dll_dllmain.obj
 0001:00054598       _DllMainCRTStartup         0000000180055598 f   MSVCRT:dll_dllmain.obj
 0001:00054644       __security_init_cookie     0000000180055644 f   MSVCRT:gs_support.obj
 0001:000546f4       DllMain                    00000001800556f4 f   MSVCRT:dll_dllmain_stub.obj
 0001:00054718       ?__scrt_initialize_type_info@@YAXXZ 0000000180055718 f   MSVCRT:tncleanup.obj
 0001:00054728       ?__scrt_uninitialize_type_info@@YAXXZ 0000000180055728 f   MSVCRT:tncleanup.obj
 0001:00054734       __local_stdio_scanf_options 0000000180055734 f i MSVCRT:default_local_stdio_options.obj
 0001:0005473c       __scrt_initialize_default_local_stdio_options 000000018005573c f   MSVCRT:default_local_stdio_options.obj
 0001:00054758       ??$__crt_fast_decode_pointer@PEAP6AXXZ@@YAPEAP6AXXZQEAP6AXXZ@Z 0000000180055758 f i MSVCRT:utility.obj
 0001:00054770       ??$__crt_fast_encode_pointer@PEAP6AXXZ@@YAPEAP6AXXZQEAP6AXXZ@Z 0000000180055770 f i MSVCRT:utility.obj
 0001:00054790       ?__crt_rotate_pointer_value@@YA_K_KH@Z 0000000180055790 f i MSVCRT:utility.obj
 0001:0005479c       ?configure_argv@__scrt_narrow_argv_policy@@SAHXZ 000000018005579c f i MSVCRT:utility.obj
 0001:000547fc       ?initialize_environment@__scrt_narrow_environment_policy@@SAHXZ 00000001800557fc f i MSVCRT:utility.obj
 0001:00054834       NtCurrentTeb               0000000180055834 f i MSVCRT:utility.obj
 0001:00054840       __scrt_acquire_startup_lock 0000000180055840 f   MSVCRT:utility.obj
 0001:0005487c       __scrt_dllmain_after_initialize_c 000000018005587c f   MSVCRT:utility.obj
 0001:000548b0       __scrt_dllmain_before_initialize_c 00000001800558b0 f   MSVCRT:utility.obj
 0001:000548c8       __scrt_dllmain_crt_thread_attach 00000001800558c8 f   MSVCRT:utility.obj
 0001:000548f0       __scrt_dllmain_crt_thread_detach 00000001800558f0 f   MSVCRT:utility.obj
 0001:00054908       __scrt_dllmain_exception_filter 0000000180055908 f   MSVCRT:utility.obj
 0001:00054968       __scrt_dllmain_uninitialize_c 0000000180055968 f   MSVCRT:utility.obj
 0001:00054998       __scrt_dllmain_uninitialize_critical 0000000180055998 f   MSVCRT:utility.obj
 0001:000549ac       __scrt_initialize_crt      00000001800559ac f   MSVCRT:utility.obj
 0001:000549f8       __scrt_initialize_onexit_tables 00000001800559f8 f   MSVCRT:utility.obj
 0001:00054ad4       __scrt_is_nonwritable_in_current_image 0000000180055ad4 f   MSVCRT:utility.obj
 0001:00054b70       __scrt_release_startup_lock 0000000180055b70 f   MSVCRT:utility.obj
 0001:00054b94       __scrt_uninitialize_crt    0000000180055b94 f   MSVCRT:utility.obj
 0001:00054bc0       _onexit                    0000000180055bc0 f   MSVCRT:utility.obj
 0001:00054c10       at_quick_exit              0000000180055c10 f   MSVCRT:utility.obj
 0001:00054c48       atexit                     0000000180055c48 f   MSVCRT:utility.obj
 0001:00054c60       __scrt_get_dyn_tls_init_callback 0000000180055c60 f   MSVCRT:dyn_tls_init.obj
 0001:00054c68       __crt_debugger_hook        0000000180055c68 f   MSVCRT:utility_desktop.obj
 0001:00054c70       __scrt_fastfail            0000000180055c70 f   MSVCRT:utility_desktop.obj
 0001:00054dbc       __scrt_get_show_window_mode 0000000180055dbc f   MSVCRT:utility_desktop.obj
 0001:00054df8       __scrt_initialize_winrt    0000000180055df8 f   MSVCRT:utility_desktop.obj
 0001:00054dfc       __scrt_is_managed_app      0000000180055dfc f   MSVCRT:utility_desktop.obj
 0001:00054e50       __scrt_set_unhandled_exception_filter 0000000180055e50 f   MSVCRT:utility_desktop.obj
 0001:00054e60       __scrt_unhandled_exception_filter 0000000180055e60 f   MSVCRT:utility_desktop.obj
 0001:00054e98       _RTC_Initialize            0000000180055e98 f   MSVCRT:_initsect_.obj
 0001:00054ed4       _RTC_Terminate             0000000180055ed4 f   MSVCRT:_initsect_.obj
 0001:00054f10       _guard_check_icall_nop     0000000180055f10 f i MSVCRT:guard_support.obj
 0001:00054f14       ReadNoFence64              0000000180055f14 f i MSVCRT:guard_support.obj
 0001:00054f18       ReadPointerNoFence         0000000180055f18 f i MSVCRT:guard_support.obj
 0001:00054f1c       _guard_icall_checks_enforced 0000000180055f1c f i MSVCRT:guard_support.obj
 0001:00054f34       _guard_rf_checks_enforced  0000000180055f34 f i MSVCRT:guard_support.obj
 0001:00054f38       __isa_available_init       0000000180055f38 f   MSVCRT:_cpu_disp_.obj
 0001:000550f4       _get_startup_argv_mode     00000001800560f4 f   MSVCRT:argv_mode.obj
 0001:000550fc       __scrt_is_ucrt_dll_in_use  00000001800560fc f   MSVCRT:ucrt_detection.obj
 0001:00055110       RtlCaptureContext          0000000180056110 f   kernel32:KERNEL32.dll
 0001:00055116       RtlLookupFunctionEntry     0000000180056116 f   kernel32:KERNEL32.dll
 0001:0005511c       RtlVirtualUnwind           000000018005611c f   kernel32:KERNEL32.dll
 0001:00055122       UnhandledExceptionFilter   0000000180056122 f   kernel32:KERNEL32.dll
 0001:00055128       SetUnhandledExceptionFilter 0000000180056128 f   kernel32:KERNEL32.dll
 0001:0005512e       GetCurrentProcess          000000018005612e f   kernel32:KERNEL32.dll
 0001:00055134       TerminateProcess           0000000180056134 f   kernel32:KERNEL32.dll
 0001:0005513a       IsProcessorFeaturePresent  000000018005613a f   kernel32:KERNEL32.dll
 0001:00055140       QueryPerformanceCounter    0000000180056140 f   kernel32:KERNEL32.dll
 0001:00055146       GetCurrentProcessId        0000000180056146 f   kernel32:KERNEL32.dll
 0001:0005514c       GetCurrentThreadId         000000018005614c f   kernel32:KERNEL32.dll
 0001:00055152       GetSystemTimeAsFileTime    0000000180056152 f   kernel32:KERNEL32.dll
 0001:00055158       DisableThreadLibraryCalls  0000000180056158 f   kernel32:KERNEL32.dll
 0001:0005515e       InitializeSListHead        000000018005615e f   kernel32:KERNEL32.dll
 0001:00055164       IsDebuggerPresent          0000000180056164 f   kernel32:KERNEL32.dll
 0001:0005516a       GetStartupInfoW            000000018005616a f   kernel32:KERNEL32.dll
 0001:00055170       GetModuleHandleW           0000000180056170 f   kernel32:KERNEL32.dll
 0001:00055176       memcpy                     0000000180056176 f   vcruntime:VCRUNTIME140.dll
 0001:0005517c       memset                     000000018005617c f   vcruntime:VCRUNTIME140.dll
 0001:00055182       __C_specific_handler       0000000180056182 f   vcruntime:VCRUNTIME140.dll
 0001:00055188       __std_type_info_destroy_list 0000000180056188 f   vcruntime:VCRUNTIME140.dll
 0001:0005518e       strcmp                     000000018005618e f   ucrt:api-ms-win-crt-string-l1-1-0.dll
 0001:00055194       frexp                      0000000180056194 f   ucrt:api-ms-win-crt-math-l1-1-0.dll
 0001:0005519a       ldexp                      000000018005619a f   ucrt:api-ms-win-crt-math-l1-1-0.dll
 0001:000551a0       __stdio_common_vsprintf    00000001800561a0 f   ucrt:api-ms-win-crt-stdio-l1-1-0.dll
 0001:000551a6       free                       00000001800561a6 f   ucrt:api-ms-win-crt-heap-l1-1-0.dll
 0001:000551ac       malloc                     00000001800561ac f   ucrt:api-ms-win-crt-heap-l1-1-0.dll
 0001:000551b2       strlen                     00000001800561b2 f   ucrt:api-ms-win-crt-string-l1-1-0.dll
 0001:000551b8       _initterm                  00000001800561b8 f   ucrt:api-ms-win-crt-runtime-l1-1-0.dll
 0001:000551be       _initterm_e                00000001800561be f   ucrt:api-ms-win-crt-runtime-l1-1-0.dll
 0001:000551c4       _seh_filter_dll            00000001800561c4 f   ucrt:api-ms-win-crt-runtime-l1-1-0.dll
 0001:000551ca       _configure_narrow_argv     00000001800561ca f   ucrt:api-ms-win-crt-runtime-l1-1-0.dll
 0001:000551d0       _initialize_narrow_environment 00000001800561d0 f   ucrt:api-ms-win-crt-runtime-l1-1-0.dll
 0001:000551d6       _initialize_onexit_table   00000001800561d6 f   ucrt:api-ms-win-crt-runtime-l1-1-0.dll
 0001:000551dc       _register_onexit_function  00000001800561dc f   ucrt:api-ms-win-crt-runtime-l1-1-0.dll
 0001:000551e2       _execute_onexit_table      00000001800561e2 f   ucrt:api-ms-win-crt-runtime-l1-1-0.dll
 0001:000551e8       _crt_atexit                00000001800561e8 f   ucrt:api-ms-win-crt-runtime-l1-1-0.dll
 0001:000551ee       _crt_at_quick_exit         00000001800561ee f   ucrt:api-ms-win-crt-runtime-l1-1-0.dll
 0001:000551f4       _cexit                     00000001800561f4 f   ucrt:api-ms-win-crt-runtime-l1-1-0.dll
 0001:000551fa       terminate                  00000001800561fa f   ucrt:api-ms-win-crt-runtime-l1-1-0.dll
 0001:00055200       __vcrt_initialize          0000000180056200 f   MSVCRT:ucrt_stubs.obj
 0001:00055200       __acrt_initialize          0000000180056200 f   MSVCRT:ucrt_stubs.obj
 0001:00055200       __scrt_stub_for_acrt_initialize 0000000180056200 f   MSVCRT:ucrt_stubs.obj
 0001:00055204       __scrt_stub_for_acrt_thread_attach 0000000180056204 f   MSVCRT:ucrt_stubs.obj
 0001:00055204       __acrt_thread_attach       0000000180056204 f   MSVCRT:ucrt_stubs.obj
 0001:00055204       __vcrt_thread_attach       0000000180056204 f   MSVCRT:ucrt_stubs.obj
 0001:00055208       __acrt_thread_detach       0000000180056208 f   MSVCRT:ucrt_stubs.obj
 0001:00055208       __vcrt_thread_detach       0000000180056208 f   MSVCRT:ucrt_stubs.obj
 0001:00055208       __scrt_stub_for_acrt_thread_detach 0000000180056208 f   MSVCRT:ucrt_stubs.obj
 0001:0005520c       __vcrt_uninitialize        000000018005620c f   MSVCRT:ucrt_stubs.obj
 0001:0005520c       __scrt_stub_for_acrt_uninitialize 000000018005620c f   MSVCRT:ucrt_stubs.obj
 0001:0005520c       __acrt_uninitialize        000000018005620c f   MSVCRT:ucrt_stubs.obj
 0001:00055210       __scrt_stub_for_acrt_uninitialize_critical 0000000180056210 f   MSVCRT:ucrt_stubs.obj
 0001:00055210       __vcrt_uninitialize_critical 0000000180056210 f   MSVCRT:ucrt_stubs.obj
 0001:00055210       __acrt_uninitialize_critical 0000000180056210 f   MSVCRT:ucrt_stubs.obj
 0001:00055214       _is_c_termination_complete 0000000180056214 f   MSVCRT:ucrt_stubs.obj
 0001:00055214       __scrt_stub_for_is_c_termination_complete 0000000180056214 f   MSVCRT:ucrt_stubs.obj
 0001:00055230       _guard_dispatch_icall_nop  0000000180056230 f   MSVCRT:_guard_dispatch_.obj
 0002:00000000       __imp_TerminateProcess     0000000180057000     kernel32:KERNEL32.dll
 0002:00000008       __imp_IsProcessorFeaturePresent 0000000180057008     kernel32:KERNEL32.dll
 0002:00000010       __imp_RtlCaptureContext    0000000180057010     kernel32:KERNEL32.dll
 0002:00000018       __imp_QueryPerformanceCounter 0000000180057018     kernel32:KERNEL32.dll
 0002:00000020       __imp_RtlLookupFunctionEntry 0000000180057020     kernel32:KERNEL32.dll
 0002:00000028       __imp_GetCurrentProcessId  0000000180057028     kernel32:KERNEL32.dll
 0002:00000030       __imp_GetCurrentThreadId   0000000180057030     kernel32:KERNEL32.dll
 0002:00000038       __imp_GetSystemTimeAsFileTime 0000000180057038     kernel32:KERNEL32.dll
 0002:00000040       __imp_DisableThreadLibraryCalls 0000000180057040     kernel32:KERNEL32.dll
 0002:00000048       __imp_InitializeSListHead  0000000180057048     kernel32:KERNEL32.dll
 0002:00000050       __imp_IsDebuggerPresent    0000000180057050     kernel32:KERNEL32.dll
 0002:00000058       __imp_GetStartupInfoW      0000000180057058     kernel32:KERNEL32.dll
 0002:00000060       __imp_GetModuleHandleW     0000000180057060     kernel32:KERNEL32.dll
 0002:00000068       __imp_SetUnhandledExceptionFilter 0000000180057068     kernel32:KERNEL32.dll
 0002:00000070       __imp_GetCurrentProcess    0000000180057070     kernel32:KERNEL32.dll
 0002:00000078       __imp_UnhandledExceptionFilter 0000000180057078     kernel32:KERNEL32.dll
 0002:00000080       __imp_RtlVirtualUnwind     0000000180057080     kernel32:KERNEL32.dll
 0002:00000088       \177KERNEL32_NULL_THUNK_DATA 0000000180057088     kernel32:KERNEL32.dll
 0002:00000090       __imp___C_specific_handler 0000000180057090     vcruntime:VCRUNTIME140.dll
 0002:00000098       __imp___std_type_info_destroy_list 0000000180057098     vcruntime:VCRUNTIME140.dll
 0002:000000a0       __imp_memcpy               00000001800570a0     vcruntime:VCRUNTIME140.dll
 0002:000000a8       __imp_memset               00000001800570a8     vcruntime:VCRUNTIME140.dll
 0002:000000b0       \177VCRUNTIME140_NULL_THUNK_DATA 00000001800570b0     vcruntime:VCRUNTIME140.dll
 0002:000000b8       __imp_free                 00000001800570b8     ucrt:api-ms-win-crt-heap-l1-1-0.dll
 0002:000000c0       __imp_malloc               00000001800570c0     ucrt:api-ms-win-crt-heap-l1-1-0.dll
 0002:000000c8       \177api-ms-win-crt-heap-l1-1-0_NULL_THUNK_DATA 00000001800570c8     ucrt:api-ms-win-crt-heap-l1-1-0.dll
 0002:000000d0       __imp_frexp                00000001800570d0     ucrt:api-ms-win-crt-math-l1-1-0.dll
 0002:000000d8       __imp_ldexp                00000001800570d8     ucrt:api-ms-win-crt-math-l1-1-0.dll
 0002:000000e0       \177api-ms-win-crt-math-l1-1-0_NULL_THUNK_DATA 00000001800570e0     ucrt:api-ms-win-crt-math-l1-1-0.dll
 0002:000000e8       __imp__seh_filter_dll      00000001800570e8     ucrt:api-ms-win-crt-runtime-l1-1-0.dll
 0002:000000f0       __imp__initialize_narrow_environment 00000001800570f0     ucrt:api-ms-win-crt-runtime-l1-1-0.dll
 0002:000000f8       __imp__initialize_onexit_table 00000001800570f8     ucrt:api-ms-win-crt-runtime-l1-1-0.dll
 0002:00000100       __imp__register_onexit_function 0000000180057100     ucrt:api-ms-win-crt-runtime-l1-1-0.dll
 0002:00000108       __imp__execute_onexit_table 0000000180057108     ucrt:api-ms-win-crt-runtime-l1-1-0.dll
 0002:00000110       __imp__crt_atexit          0000000180057110     ucrt:api-ms-win-crt-runtime-l1-1-0.dll
 0002:00000118       __imp__crt_at_quick_exit   0000000180057118     ucrt:api-ms-win-crt-runtime-l1-1-0.dll
 0002:00000120       __imp__cexit               0000000180057120     ucrt:api-ms-win-crt-runtime-l1-1-0.dll
 0002:00000128       __imp_terminate            0000000180057128     ucrt:api-ms-win-crt-runtime-l1-1-0.dll
 0002:00000130       __imp__configure_narrow_argv 0000000180057130     ucrt:api-ms-win-crt-runtime-l1-1-0.dll
 0002:00000138       __imp__initterm_e          0000000180057138     ucrt:api-ms-win-crt-runtime-l1-1-0.dll
 0002:00000140       __imp__initterm            0000000180057140     ucrt:api-ms-win-crt-runtime-l1-1-0.dll
 0002:00000148       \177api-ms-win-crt-runtime-l1-1-0_NULL_THUNK_DATA 0000000180057148     ucrt:api-ms-win-crt-runtime-l1-1-0.dll
 0002:00000150       __imp___stdio_common_vsprintf 0000000180057150     ucrt:api-ms-win-crt-stdio-l1-1-0.dll
 0002:00000158       \177api-ms-win-crt-stdio-l1-1-0_NULL_THUNK_DATA 0000000180057158     ucrt:api-ms-win-crt-stdio-l1-1-0.dll
 0002:00000160       __imp_strlen               0000000180057160     ucrt:api-ms-win-crt-string-l1-1-0.dll
 0002:00000168       __imp_strcmp               0000000180057168     ucrt:api-ms-win-crt-string-l1-1-0.dll
 0002:00000170       \177api-ms-win-crt-string-l1-1-0_NULL_THUNK_DATA 0000000180057170     ucrt:api-ms-win-crt-string-l1-1-0.dll
 0002:00000178       __imp_covrtCreateStateflowInstanceData 0000000180057178     libcovrt:libcovrt.dll
 0002:00000180       __imp_covrtEmlMcdcEval     0000000180057180     libcovrt:libcovrt.dll
 0002:00000188       __imp_covrtEmlCondEval     0000000180057188     libcovrt:libcovrt.dll
 0002:00000190       __imp_covrtEmlForEval      0000000180057190     libcovrt:libcovrt.dll
 0002:00000198       __imp_covrtEmlIfEval       0000000180057198     libcovrt:libcovrt.dll
 0002:000001a0       __imp_covrtEmlFcnEval      00000001800571a0     libcovrt:libcovrt.dll
 0002:000001a8       __imp_covrtEmlRelationalInitFcn 00000001800571a8     libcovrt:libcovrt.dll
 0002:000001b0       __imp_covrtEmlMCDCInitFcn  00000001800571b0     libcovrt:libcovrt.dll
 0002:000001b8       __imp_covrtEmlForInitFcn   00000001800571b8     libcovrt:libcovrt.dll
 0002:000001c0       __imp_covrtEmlIfInitFcn    00000001800571c0     libcovrt:libcovrt.dll
 0002:000001c8       __imp_covrtEmlFcnInitFcn   00000001800571c8     libcovrt:libcovrt.dll
 0002:000001d0       __imp_covrtEmlInitFcn      00000001800571d0     libcovrt:libcovrt.dll
 0002:000001d8       __imp_covrtSigUpdateFcn    00000001800571d8     libcovrt:libcovrt.dll
 0002:000001e0       __imp_covrtRelationalopUpdateFcn 00000001800571e0     libcovrt:libcovrt.dll
 0002:000001e8       __imp_covrtChartInitFcn    00000001800571e8     libcovrt:libcovrt.dll
 0002:000001f0       __imp_covrtStateInitFcn    00000001800571f0     libcovrt:libcovrt.dll
 0002:000001f8       __imp_covrtTransInitFcn    00000001800571f8     libcovrt:libcovrt.dll
 0002:00000200       __imp_covrtDeleteStateflowInstanceData 0000000180057200     libcovrt:libcovrt.dll
 0002:00000208       \177libcovrt_NULL_THUNK_DATA 0000000180057208     libcovrt:libcovrt.dll
 0002:00000210       __imp_emlrtHeapAllocationErrorR2012b 0000000180057210     libemlrt:libemlrt.dll
 0002:00000218       __imp_emlrtFreeMex         0000000180057218     libemlrt:libemlrt.dll
 0002:00000220       __imp_emlrtCallocMex       0000000180057220     libemlrt:libemlrt.dll
 0002:00000228       __imp_emlrtMallocMex       0000000180057228     libemlrt:libemlrt.dll
 0002:00000230       __imp_emlrtSizeMulR2012b   0000000180057230     libemlrt:libemlrt.dll
 0002:00000238       __imp_emlrtLicenseCheckR2012b 0000000180057238     libemlrt:libemlrt.dll
 0002:00000240       \177libemlrt_NULL_THUNK_DATA 0000000180057240     libemlrt:libemlrt.dll
 0002:00000248       __imp_mexMakeArrayPersistent_800 0000000180057248     libmex:libmex.dll
 0002:00000250       __imp_mexIsLocked_800      0000000180057250     libmex:libmex.dll
 0002:00000258       __imp_mexUnlock_800        0000000180057258     libmex:libmex.dll
 0002:00000260       __imp_mexLock_800          0000000180057260     libmex:libmex.dll
 0002:00000268       __imp_mexCallMATLAB_800    0000000180057268     libmex:libmex.dll
 0002:00000270       __imp_mexWarnMsgTxt_800    0000000180057270     libmex:libmex.dll
 0002:00000278       __imp_mexErrMsgTxt_800     0000000180057278     libmex:libmex.dll
 0002:00000280       \177libmex_NULL_THUNK_DATA 0000000180057280     libmex:libmex.dll
 0002:00000288       __imp_bwlookup_tbb_boolean 0000000180057288     libmwbwlookup_tbb:libmwbwlookup_tbb.dll
 0002:00000290       \177libmwbwlookup_tbb_NULL_THUNK_DATA 0000000180057290     libmwbwlookup_tbb:libmwbwlookup_tbb.dll
 0002:00000298       __imp_cannythresholding_real32_tbb 0000000180057298     libmwcannythresholding_tbb:libmwcannythresholding_tbb.dll
 0002:000002a0       \177libmwcannythresholding_tbb_NULL_THUNK_DATA 00000001800572a0     libmwcannythresholding_tbb:libmwcannythresholding_tbb.dll
 0002:000002a8       __imp_getnumcores          00000001800572a8     libmwgetnumcores:libmwgetnumcores.dll
 0002:000002b0       \177libmwgetnumcores_NULL_THUNK_DATA 00000001800572b0     libmwgetnumcores:libmwgetnumcores.dll
 0002:000002b8       __imp_grayto8_real64       00000001800572b8     libmwgrayto8:libmwgrayto8.dll
 0002:000002c0       __imp_grayto8_real32       00000001800572c0     libmwgrayto8:libmwgrayto8.dll
 0002:000002c8       \177libmwgrayto8_NULL_THUNK_DATA 00000001800572c8     libmwgrayto8:libmwgrayto8.dll
 0002:000002d0       __imp_imfilter_real32      00000001800572d0     libmwimfilter:libmwimfilter.dll
 0002:000002d8       \177libmwimfilter_NULL_THUNK_DATA 00000001800572d8     libmwimfilter:libmwimfilter.dll
 0002:000002e0       __imp_imregionalmax_real64 00000001800572e0     libmwimregionalmax:libmwimregionalmax.dll
 0002:000002e8       \177libmwimregionalmax_NULL_THUNK_DATA 00000001800572e8     libmwimregionalmax:libmwimregionalmax.dll
 0002:000002f0       __imp_ippfilter_real32     00000001800572f0     libmwippfilter:libmwippfilter.dll
 0002:000002f8       \177libmwippfilter_NULL_THUNK_DATA 00000001800572f8     libmwippfilter:libmwippfilter.dll
 0002:00000300       __imp_ippreconstruct_real64 0000000180057300     libmwippreconstruct:libmwippreconstruct.dll
 0002:00000308       __imp_ippreconstruct_uint8 0000000180057308     libmwippreconstruct:libmwippreconstruct.dll
 0002:00000310       \177libmwippreconstruct_NULL_THUNK_DATA 0000000180057310     libmwippreconstruct:libmwippreconstruct.dll
 0002:00000318       __imp_muDoubleScalarCeil   0000000180057318     libmwmathutil:libmwmathutil.dll
 0002:00000320       __imp_muSingleScalarIsInf  0000000180057320     libmwmathutil:libmwmathutil.dll
 0002:00000328       __imp_muSingleScalarIsNaN  0000000180057328     libmwmathutil:libmwmathutil.dll
 0002:00000330       __imp_muDoubleScalarIsInf  0000000180057330     libmwmathutil:libmwmathutil.dll
 0002:00000338       __imp_muDoubleScalarIsNaN  0000000180057338     libmwmathutil:libmwmathutil.dll
 0002:00000340       __imp_muSingleScalarHypot  0000000180057340     libmwmathutil:libmwmathutil.dll
 0002:00000348       __imp_muSingleScalarMin    0000000180057348     libmwmathutil:libmwmathutil.dll
 0002:00000350       __imp_muSingleScalarMax    0000000180057350     libmwmathutil:libmwmathutil.dll
 0002:00000358       __imp_muSingleScalarFloor  0000000180057358     libmwmathutil:libmwmathutil.dll
 0002:00000360       __imp_muSingleScalarCeil   0000000180057360     libmwmathutil:libmwmathutil.dll
 0002:00000368       __imp_muSingleScalarAbs    0000000180057368     libmwmathutil:libmwmathutil.dll
 0002:00000370       __imp_muDoubleScalarHypot  0000000180057370     libmwmathutil:libmwmathutil.dll
 0002:00000378       __imp_muDoubleScalarRem    0000000180057378     libmwmathutil:libmwmathutil.dll
 0002:00000380       __imp_muDoubleScalarSign   0000000180057380     libmwmathutil:libmwmathutil.dll
 0002:00000388       __imp_muDoubleScalarSin    0000000180057388     libmwmathutil:libmwmathutil.dll
 0002:00000390       __imp_muDoubleScalarMax    0000000180057390     libmwmathutil:libmwmathutil.dll
 0002:00000398       __imp_muDoubleScalarAtan2  0000000180057398     libmwmathutil:libmwmathutil.dll
 0002:000003a0       __imp_muDoubleScalarExp    00000001800573a0     libmwmathutil:libmwmathutil.dll
 0002:000003a8       __imp_muDoubleScalarCos    00000001800573a8     libmwmathutil:libmwmathutil.dll
 0002:000003b0       __imp_muDoubleScalarRound  00000001800573b0     libmwmathutil:libmwmathutil.dll
 0002:000003b8       __imp_muDoubleScalarFloor  00000001800573b8     libmwmathutil:libmwmathutil.dll
 0002:000003c0       __imp_muDoubleScalarAbs    00000001800573c0     libmwmathutil:libmwmathutil.dll
 0002:000003c8       \177libmwmathutil_NULL_THUNK_DATA 00000001800573c8     libmwmathutil:libmwmathutil.dll
 0002:000003d0       __imp_ordfilt2_real64      00000001800573d0     libmwordfilt2:libmwordfilt2.dll
 0002:000003d8       \177libmwordfilt2_NULL_THUNK_DATA 00000001800573d8     libmwordfilt2:libmwordfilt2.dll
 0002:000003e0       __imp_mxGetM_800           00000001800573e0     libmx:libmx.dll
 0002:000003e8       __imp_mxIsChar_800         00000001800573e8     libmx:libmx.dll
 0002:000003f0       __imp_mxGetScalar_800      00000001800573f0     libmx:libmx.dll
 0002:000003f8       __imp_mxGetPr_800          00000001800573f8     libmx:libmx.dll
 0002:00000400       __imp_mxDestroyArray_800   0000000180057400     libmx:libmx.dll
 0002:00000408       __imp_mxCreateDoubleMatrix_800 0000000180057408     libmx:libmx.dll
 0002:00000410       __imp_mxGetString_800      0000000180057410     libmx:libmx.dll
 0002:00000418       __imp_mxDuplicateArray_800 0000000180057418     libmx:libmx.dll
 0002:00000420       __imp_mxSetCell_800        0000000180057420     libmx:libmx.dll
 0002:00000428       __imp_mxSetField_800       0000000180057428     libmx:libmx.dll
 0002:00000430       __imp_mxCreateDoubleScalar_800 0000000180057430     libmx:libmx.dll
 0002:00000438       __imp_mxGetN_800           0000000180057438     libmx:libmx.dll
 0002:00000440       __imp_mxIsComplex_800      0000000180057440     libmx:libmx.dll
 0002:00000448       __imp_mxIsNumeric_800      0000000180057448     libmx:libmx.dll
 0002:00000450       __imp_mxGetClassID_800     0000000180057450     libmx:libmx.dll
 0002:00000458       __imp_mxCreateString_800   0000000180057458     libmx:libmx.dll
 0002:00000460       __imp_mxCalloc_800         0000000180057460     libmx:libmx.dll
 0002:00000468       __imp_mxGetNaN_800         0000000180057468     libmx:libmx.dll
 0002:00000470       __imp_mxGetInf_800         0000000180057470     libmx:libmx.dll
 0002:00000478       __imp_mxCreateStructMatrix_800 0000000180057478     libmx:libmx.dll
 0002:00000480       __imp_mxCreateCellMatrix_800 0000000180057480     libmx:libmx.dll
 0002:00000488       \177libmx_NULL_THUNK_DATA  0000000180057488     libmx:libmx.dll
 0002:00000490       __imp_utFree               0000000180057490     libut:libut.dll
 0002:00000498       __imp_utMalloc             0000000180057498     libut:libut.dll
 0002:000004a0       \177libut_NULL_THUNK_DATA  00000001800574a0     libut:libut.dll
 0002:000004a8       __imp_sf_debug_size_eq_check_1d 00000001800574a8     sf_runtime:sf_runtime.dll
 0002:000004b0       __imp_sf_debug_size_eq_check_nd 00000001800574b0     sf_runtime:sf_runtime.dll
 0002:000004b8       __imp_sf_debug_symbol_scope_add_eml_dyn_emx_importable 00000001800574b8     sf_runtime:sf_runtime.dll
 0002:000004c0       __imp_sf_debug_set_instance_data_value_ptr 00000001800574c0     sf_runtime:sf_runtime.dll
 0002:000004c8       __imp_sf_debug_set_chart_disable_implicit_casting 00000001800574c8     sf_runtime:sf_runtime.dll
 0002:000004d0       __imp_sf_debug_set_chart_event_thresholds 00000001800574d0     sf_runtime:sf_runtime.dll
 0002:000004d8       __imp_sf_debug_symbol_scope_add_eml_importable 00000001800574d8     sf_runtime:sf_runtime.dll
 0002:000004e0       __imp_sf_debug_symbol_scope_add_eml 00000001800574e0     sf_runtime:sf_runtime.dll
 0002:000004e8       __imp_sf_debug_symbol_scope_pop 00000001800574e8     sf_runtime:sf_runtime.dll
 0002:000004f0       __imp_sf_debug_symbol_scope_push_eml 00000001800574f0     sf_runtime:sf_runtime.dll
 0002:000004f8       __imp_sf_debug_symbol_scope_push 00000001800574f8     sf_runtime:sf_runtime.dll
 0002:00000500       __imp_sf_debug_set_chart_data_compiled_props 0000000180057500     sf_runtime:sf_runtime.dll
 0002:00000508       __imp_sf_debug_set_chart_data_props 0000000180057508     sf_runtime:sf_runtime.dll
 0002:00000510       __imp_sf_debug_reset_current_state_configuration 0000000180057510     sf_runtime:sf_runtime.dll
 0002:00000518       __imp_eml_debug_line_call  0000000180057518     sf_runtime:sf_runtime.dll
 0002:00000520       __imp_sf_debug_call        0000000180057520     sf_runtime:sf_runtime.dll
 0002:00000528       __imp_sf_debug_initialize_chart 0000000180057528     sf_runtime:sf_runtime.dll
 0002:00000530       __imp_sf_integer_check     0000000180057530     sf_runtime:sf_runtime.dll
 0002:00000538       __imp_sf_debug_set_chart_state_info 0000000180057538     sf_runtime:sf_runtime.dll
 0002:00000540       __imp_ssGetOutputPortSignal_wrapper 0000000180057540     sf_runtime:sf_runtime.dll
 0002:00000548       __imp_ssGetInputPortSignal_wrapper 0000000180057548     sf_runtime:sf_runtime.dll
 0002:00000550       __imp_sf_mex_get_dimension 0000000180057550     sf_runtime:sf_runtime.dll
 0002:00000558       __imp_sf_mex_import_vs     0000000180057558     sf_runtime:sf_runtime.dll
 0002:00000560       __imp_sf_mex_import        0000000180057560     sf_runtime:sf_runtime.dll
 0002:00000568       __imp_sf_mex_destroy       0000000180057568     sf_runtime:sf_runtime.dll
 0002:00000570       __imp_sf_mex_dup           0000000180057570     sf_runtime:sf_runtime.dll
 0002:00000578       __imp_sf_mex_assign        0000000180057578     sf_runtime:sf_runtime.dll
 0002:00000580       __imp_sf_mex_getcell       0000000180057580     sf_runtime:sf_runtime.dll
 0002:00000588       __imp_sf_mex_setcell       0000000180057588     sf_runtime:sf_runtime.dll
 0002:00000590       __imp_sf_mex_createcellmatrix 0000000180057590     sf_runtime:sf_runtime.dll
 0002:00000598       __imp_sf_mex_create        0000000180057598     sf_runtime:sf_runtime.dll
 0002:000005a0       __imp_sf_mex_createstructarray 00000001800575a0     sf_runtime:sf_runtime.dll
 0002:000005a8       __imp_sf_mex_check_struct_vs 00000001800575a8     sf_runtime:sf_runtime.dll
 0002:000005b0       __imp_sf_mex_createfield   00000001800575b0     sf_runtime:sf_runtime.dll
 0002:000005b8       __imp_sf_mex_setfieldbynum 00000001800575b8     sf_runtime:sf_runtime.dll
 0002:000005c0       __imp_sf_mex_getfield      00000001800575c0     sf_runtime:sf_runtime.dll
 0002:000005c8       __imp_sf_mex_error_message 00000001800575c8     sf_runtime:sf_runtime.dll
 0002:000005d0       __imp_sf_mex_call_debug    00000001800575d0     sf_runtime:sf_runtime.dll
 0002:000005d8       __imp_sfListenerLightTerminate 00000001800575d8     sf_runtime:sf_runtime.dll
 0002:000005e0       __imp_sfListenerCacheSimStruct 00000001800575e0     sf_runtime:sf_runtime.dll
 0002:000005e8       __imp_sf_set_work_widths   00000001800575e8     sf_runtime:sf_runtime.dll
 0002:000005f0       __imp_setDebuggerFlag      00000001800575f0     sf_runtime:sf_runtime.dll
 0002:000005f8       __imp_setLegacyDebuggerFlag 00000001800575f8     sf_runtime:sf_runtime.dll
 0002:00000600       __imp_sf_is_first_init_cond 0000000180057600     sf_runtime:sf_runtime.dll
 0002:00000608       __imp_sf_get_time          0000000180057608     sf_runtime:sf_runtime.dll
 0002:00000610       __imp_sf_clear_rtw_identifier 0000000180057610     sf_runtime:sf_runtime.dll
 0002:00000618       __imp_sf_mex_listen_for_ctrl_c 0000000180057618     sf_runtime:sf_runtime.dll
 0002:00000620       __imp_sim_mode_is_external 0000000180057620     sf_runtime:sf_runtime.dll
 0002:00000628       __imp_sim_mode_is_rtw_gen  0000000180057628     sf_runtime:sf_runtime.dll
 0002:00000630       __imp_sf_get_chart_instance_ptr 0000000180057630     sf_runtime:sf_runtime.dll
 0002:00000638       __imp_sfrtGetCovrtInstance 0000000180057638     sf_runtime:sf_runtime.dll
 0002:00000640       __imp_sfrtGetEmlrtCtx      0000000180057640     sf_runtime:sf_runtime.dll
 0002:00000648       __imp_sf_free_ChartRunTimeInfo 0000000180057648     sf_runtime:sf_runtime.dll
 0002:00000650       __imp_sf_init_ChartRunTimeInfo 0000000180057650     sf_runtime:sf_runtime.dll
 0002:00000658       __imp_sf_debug_set_machine_data_thresholds 0000000180057658     sf_runtime:sf_runtime.dll
 0002:00000660       __imp_sf_debug_set_machine_event_thresholds 0000000180057660     sf_runtime:sf_runtime.dll
 0002:00000668       __imp_sf_debug_initialize_machine 0000000180057668     sf_runtime:sf_runtime.dll
 0002:00000670       __imp_sf_mex_decode        0000000180057670     sf_runtime:sf_runtime.dll
 0002:00000678       __imp_sf_load_rtw_optimization_info 0000000180057678     sf_runtime:sf_runtime.dll
 0002:00000680       __imp_sf_debug_api         0000000180057680     sf_runtime:sf_runtime.dll
 0002:00000688       __imp_sf_debug_terminate   0000000180057688     sf_runtime:sf_runtime.dll
 0002:00000690       __imp_sf_debug_create_debug_instance_struct 0000000180057690     sf_runtime:sf_runtime.dll
 0002:00000698       __imp_sf_debug_set_chart_decomposition 0000000180057698     sf_runtime:sf_runtime.dll
 0002:000006a0       __imp_sf_eml_array_bounds_check 00000001800576a0     sf_runtime:sf_runtime.dll
 0002:000006a8       __imp_sf_clear_error_manager_info 00000001800576a8     sf_runtime:sf_runtime.dll
 0002:000006b0       __imp_sf_mex_error_direct_call 00000001800576b0     sf_runtime:sf_runtime.dll
 0002:000006b8       __imp_getRuntimeInstanceInfoAsVoid 00000001800576b8     sf_runtime:sf_runtime.dll
 0002:000006c0       __imp_call_sf_machine_global_method_dispatcher 00000001800576c0     sf_runtime:sf_runtime.dll
 0002:000006c8       __imp_callMdlMethodAndReportError 00000001800576c8     sf_runtime:sf_runtime.dll
 0002:000006d0       __imp_sf_get_hasSeparateUpdateOutputs 00000001800576d0     sf_runtime:sf_runtime.dll
 0002:000006d8       __imp_sf_get_ChartInfoStruct_CodeGen 00000001800576d8     sf_runtime:sf_runtime.dll
 0002:000006e0       __imp_sf_debug_overflow_detection 00000001800576e0     sf_runtime:sf_runtime.dll
 0002:000006e8       __imp_sf_debug_data_range_wrapper 00000001800576e8     sf_runtime:sf_runtime.dll
 0002:000006f0       __imp_sf_debug_non_negative_check 00000001800576f0     sf_runtime:sf_runtime.dll
 0002:000006f8       __imp_sf_debug_for_loop_vector_check 00000001800576f8     sf_runtime:sf_runtime.dll
 0002:00000700       __imp_sf_debug_sub_assign_size_check_nd 0000000180057700     sf_runtime:sf_runtime.dll
 0002:00000708       __imp_sf_debug_set_chart_substate_count 0000000180057708     sf_runtime:sf_runtime.dll
 0002:00000710       __imp_sf_debug_sub_assign_size_check_1d 0000000180057710     sf_runtime:sf_runtime.dll
 0002:00000718       \177sf_runtime_NULL_THUNK_DATA 0000000180057718     sf_runtime:sf_runtime.dll
 0002:00000720       __guard_check_icall_fptr   0000000180057720     MSVCRT:guard_support.obj
 0002:00000728       __guard_dispatch_icall_fptr 0000000180057728     MSVCRT:guard_support.obj
 0002:00000730       __xc_a                     0000000180057730     MSVCRT:initializers.obj
 0002:00000738       __xc_z                     0000000180057738     MSVCRT:initializers.obj
 0002:00000740       __xi_a                     0000000180057740     MSVCRT:initializers.obj
 0002:00000748       __xi_z                     0000000180057748     MSVCRT:initializers.obj
 0002:00000750       __xp_a                     0000000180057750     MSVCRT:initializers.obj
 0002:00000758       __xp_z                     0000000180057758     MSVCRT:initializers.obj
 0002:00000760       __xt_a                     0000000180057760     MSVCRT:initializers.obj
 0002:00000768       __xt_z                     0000000180057768     MSVCRT:initializers.obj
 0002:00000770       __real@4156def340000000    0000000180057770     flightControlSystem_sfun.obj
 0002:00000778       __real@41a1b810a2000000    0000000180057778     flightControlSystem_sfun.obj
 0002:00000780       __real@41b92f8712000000    0000000180057780     flightControlSystem_sfun.obj
 0002:00000788       __real@41bad2f744000000    0000000180057788     flightControlSystem_sfun.obj
 0002:00000790       __real@41cd89ce05000000    0000000180057790     flightControlSystem_sfun.obj
 0002:00000798       __real@41e2bceb4b200000    0000000180057798     flightControlSystem_sfun.obj
 0002:000007a0       __real@41e3d45d53200000    00000001800577a0     flightControlSystem_sfun.obj
 0002:000007a8       __real@41e3f2a9e2200000    00000001800577a8     flightControlSystem_sfun.obj
 0002:000007b0       __real@41e3fa3198000000    00000001800577b0     flightControlSystem_sfun.obj
 0002:000007b8       __real@41e420c6a9800000    00000001800577b8     flightControlSystem_sfun.obj
 0002:000007c0       __real@41e4f82e60400000    00000001800577c0     flightControlSystem_sfun.obj
 0002:000007c8       __real@41e65f5631400000    00000001800577c8     flightControlSystem_sfun.obj
 0002:00000a94       __real@00000000            0000000180057a94     c2_flightControlSystem.obj
 0002:00000a98       __real@0000000000000000    0000000180057a98     c2_flightControlSystem.obj
 0002:00000aa0       __real@0000000000000001    0000000180057aa0     c2_flightControlSystem.obj
 0002:00000aa8       __real@00000001            0000000180057aa8     c2_flightControlSystem.obj
 0002:00000ab0       __real@0010000000000000    0000000180057ab0     c2_flightControlSystem.obj
 0002:00000ab8       __real@00800000            0000000180057ab8     c2_flightControlSystem.obj
 0002:00000ac0       __real@3cc0000000000000    0000000180057ac0     c2_flightControlSystem.obj
 0002:00000ac8       __real@3e50000000000000    0000000180057ac8     c2_flightControlSystem.obj
 0002:00000ad0       __real@3f000000            0000000180057ad0     c2_flightControlSystem.obj
 0002:00000ad4       __real@3f800000            0000000180057ad4     c2_flightControlSystem.obj
 0002:00000ad8       __real@3fa999999999999a    0000000180057ad8     c2_flightControlSystem.obj
 0002:00000ae0       __real@3fc3333333333333    0000000180057ae0     c2_flightControlSystem.obj
 0002:00000ae8       __real@3fc3333333333334    0000000180057ae8     c2_flightControlSystem.obj
 0002:00000af0       __real@3fd3333333333333    0000000180057af0     c2_flightControlSystem.obj
 0002:00000af8       __real@3fd999999999999a    0000000180057af8     c2_flightControlSystem.obj
 0002:00000b00       __real@3fe0000000000000    0000000180057b00     c2_flightControlSystem.obj
 0002:00000b08       __real@3fef62f40794a7b8    0000000180057b08     c2_flightControlSystem.obj
 0002:00000b10       __real@3ff0000000000000    0000000180057b10     c2_flightControlSystem.obj
 0002:00000b18       __real@40000000            0000000180057b18     c2_flightControlSystem.obj
 0002:00000b20       __real@4000000000000000    0000000180057b20     c2_flightControlSystem.obj
 0002:00000b28       __real@4005aa16394d481f    0000000180057b28     c2_flightControlSystem.obj
 0002:00000b30       __real@4008000000000000    0000000180057b30     c2_flightControlSystem.obj
 0002:00000b38       __real@400921fb54442d18    0000000180057b38     c2_flightControlSystem.obj
 0002:00000b40       __real@4010000000000000    0000000180057b40     c2_flightControlSystem.obj
 0002:00000b48       __real@4014000000000000    0000000180057b48     c2_flightControlSystem.obj
 0002:00000b50       __real@4018000000000000    0000000180057b50     c2_flightControlSystem.obj
 0002:00000b58       __real@401921fb54442d18    0000000180057b58     c2_flightControlSystem.obj
 0002:00000b60       __real@4020000000000000    0000000180057b60     c2_flightControlSystem.obj
 0002:00000b68       __real@4022000000000000    0000000180057b68     c2_flightControlSystem.obj
 0002:00000b70       __real@4028000000000000    0000000180057b70     c2_flightControlSystem.obj
 0002:00000b78       __real@402a000000000000    0000000180057b78     c2_flightControlSystem.obj
 0002:00000b80       __real@402e000000000000    0000000180057b80     c2_flightControlSystem.obj
 0002:00000b88       __real@4039000000000000    0000000180057b88     c2_flightControlSystem.obj
 0002:00000b90       __real@403c000000000000    0000000180057b90     c2_flightControlSystem.obj
 0002:00000b98       __real@4044000000000000    0000000180057b98     c2_flightControlSystem.obj
 0002:00000ba0       __real@404a000000000000    0000000180057ba0     c2_flightControlSystem.obj
 0002:00000ba8       __real@4050000000000000    0000000180057ba8     c2_flightControlSystem.obj
 0002:00000bb0       __real@4056800000000000    0000000180057bb0     c2_flightControlSystem.obj
 0002:00000bb8       __real@405e000000000000    0000000180057bb8     c2_flightControlSystem.obj
 0002:00000bc0       __real@405e800000000000    0000000180057bc0     c2_flightControlSystem.obj
 0002:00000bc8       __real@405f000000000000    0000000180057bc8     c2_flightControlSystem.obj
 0002:00000bd0       __real@4060800000000000    0000000180057bd0     c2_flightControlSystem.obj
 0002:00000bd8       __real@4064000000000000    0000000180057bd8     c2_flightControlSystem.obj
 0002:00000be0       __real@4066600000000000    0000000180057be0     c2_flightControlSystem.obj
 0002:00000be8       __real@4066800000000000    0000000180057be8     c2_flightControlSystem.obj
 0002:00000bf0       __real@406fe00000000000    0000000180057bf0     c2_flightControlSystem.obj
 0002:00000bf8       __real@4080000000000000    0000000180057bf8     c2_flightControlSystem.obj
 0002:00000c00       __real@40ca400000000000    0000000180057c00     c2_flightControlSystem.obj
 0002:00000c08       __real@40d2c00000000000    0000000180057c08     c2_flightControlSystem.obj
 0002:00000c10       __real@40d3258000000000    0000000180057c10     c2_flightControlSystem.obj
 0002:00000c18       __real@40d325c000000000    0000000180057c18     c2_flightControlSystem.obj
 0002:00000c20       __real@41c7e5c9aa000000    0000000180057c20     c2_flightControlSystem.obj
 0002:00000c28       __real@41ce4e1a87800000    0000000180057c28     c2_flightControlSystem.obj
 0002:00000c30       __real@41dbef679a000000    0000000180057c30     c2_flightControlSystem.obj
 0002:00000c38       __real@41dfffffffc00000    0000000180057c38     c2_flightControlSystem.obj
 0002:00000c40       __real@41e0000000000000    0000000180057c40     c2_flightControlSystem.obj
 0002:00000c48       __real@41ea3febc6600000    0000000180057c48     c2_flightControlSystem.obj
 0002:00000c50       __real@427c0000            0000000180057c50     c2_flightControlSystem.obj
 0002:00000c54       __real@42f00000            0000000180057c54     c2_flightControlSystem.obj
 0002:00000c58       __real@43200000            0000000180057c58     c2_flightControlSystem.obj
 0002:00000c60       __real@bfe0000000000000    0000000180057c60     c2_flightControlSystem.obj
 0002:00000c68       __real@bff0000000000000    0000000180057c68     c2_flightControlSystem.obj
 0002:00000c70       __real@c010000000000000    0000000180057c70     c2_flightControlSystem.obj
 0002:00000c78       __real@c018000000000000    0000000180057c78     c2_flightControlSystem.obj
 0002:00000c80       __real@c028000000000000    0000000180057c80     c2_flightControlSystem.obj
 0002:00000c88       __real@c056800000000000    0000000180057c88     c2_flightControlSystem.obj
 0002:00000c90       __real@c068e00000000000    0000000180057c90     c2_flightControlSystem.obj
 0002:00000c98       __real@c1e0000000000000    0000000180057c98     c2_flightControlSystem.obj
 0002:00000ca0       __xmm@80000000000000008000000000000000 0000000180057ca0     c2_flightControlSystem.obj
 0002:00000cb0       DYNAMIC_DIMENSION_DEF      0000000180057cb0     flightControlSystem_sfun_registry.obj
 0002:00000cc8       __real@41602cbca0000000    0000000180057cc8     flightControlSystem_sfun_registry.obj
 0002:00000ce0       _pDefaultRawDllMain        0000000180057ce0     MSVCRT:dll_dllmain.obj
 0002:00000ce0       _pRawDllMain               0000000180057ce0     MSVCRT:dll_dllmain.obj
 0002:00000d10       _load_config_used          0000000180057d10     MSVCRT:loadcfg.obj
 0002:00001028       __rtc_iaa                  0000000180058028     MSVCRT:_initsect_.obj
 0002:00001030       __rtc_izz                  0000000180058030     MSVCRT:_initsect_.obj
 0002:00001038       __rtc_taa                  0000000180058038     MSVCRT:_initsect_.obj
 0002:00001040       __rtc_tzz                  0000000180058040     MSVCRT:_initsect_.obj
 0002:00001f34       __IMPORT_DESCRIPTOR_libmwbwlookup_tbb 0000000180058f34     libmwbwlookup_tbb:libmwbwlookup_tbb.dll
 0002:00001f48       __IMPORT_DESCRIPTOR_libmwcannythresholding_tbb 0000000180058f48     libmwcannythresholding_tbb:libmwcannythresholding_tbb.dll
 0002:00001f5c       __IMPORT_DESCRIPTOR_libmwgrayto8 0000000180058f5c     libmwgrayto8:libmwgrayto8.dll
 0002:00001f70       __IMPORT_DESCRIPTOR_libmwippfilter 0000000180058f70     libmwippfilter:libmwippfilter.dll
 0002:00001f84       __IMPORT_DESCRIPTOR_libmwgetnumcores 0000000180058f84     libmwgetnumcores:libmwgetnumcores.dll
 0002:00001f98       __IMPORT_DESCRIPTOR_libmwimfilter 0000000180058f98     libmwimfilter:libmwimfilter.dll
 0002:00001fac       __IMPORT_DESCRIPTOR_libmwimregionalmax 0000000180058fac     libmwimregionalmax:libmwimregionalmax.dll
 0002:00001fc0       __IMPORT_DESCRIPTOR_libmwordfilt2 0000000180058fc0     libmwordfilt2:libmwordfilt2.dll
 0002:00001fd4       __IMPORT_DESCRIPTOR_libmwippreconstruct 0000000180058fd4     libmwippreconstruct:libmwippreconstruct.dll
 0002:00001fe8       __IMPORT_DESCRIPTOR_sf_runtime 0000000180058fe8     sf_runtime:sf_runtime.dll
 0002:00001ffc       __IMPORT_DESCRIPTOR_libmx  0000000180058ffc     libmx:libmx.dll
 0002:00002010       __IMPORT_DESCRIPTOR_libmex 0000000180059010     libmex:libmex.dll
 0002:00002024       __IMPORT_DESCRIPTOR_libut  0000000180059024     libut:libut.dll
 0002:00002038       __IMPORT_DESCRIPTOR_libmwmathutil 0000000180059038     libmwmathutil:libmwmathutil.dll
 0002:0000204c       __IMPORT_DESCRIPTOR_libemlrt 000000018005904c     libemlrt:libemlrt.dll
 0002:00002060       __IMPORT_DESCRIPTOR_libcovrt 0000000180059060     libcovrt:libcovrt.dll
 0002:00002074       __IMPORT_DESCRIPTOR_KERNEL32 0000000180059074     kernel32:KERNEL32.dll
 0002:00002088       __IMPORT_DESCRIPTOR_VCRUNTIME140 0000000180059088     vcruntime:VCRUNTIME140.dll
 0002:0000209c       __IMPORT_DESCRIPTOR_api-ms-win-crt-string-l1-1-0 000000018005909c     ucrt:api-ms-win-crt-string-l1-1-0.dll
 0002:000020b0       __IMPORT_DESCRIPTOR_api-ms-win-crt-math-l1-1-0 00000001800590b0     ucrt:api-ms-win-crt-math-l1-1-0.dll
 0002:000020c4       __IMPORT_DESCRIPTOR_api-ms-win-crt-stdio-l1-1-0 00000001800590c4     ucrt:api-ms-win-crt-stdio-l1-1-0.dll
 0002:000020d8       __IMPORT_DESCRIPTOR_api-ms-win-crt-heap-l1-1-0 00000001800590d8     ucrt:api-ms-win-crt-heap-l1-1-0.dll
 0002:000020ec       __IMPORT_DESCRIPTOR_api-ms-win-crt-runtime-l1-1-0 00000001800590ec     ucrt:api-ms-win-crt-runtime-l1-1-0.dll
 0002:00002100       __NULL_IMPORT_DESCRIPTOR   0000000180059100     libmwbwlookup_tbb:libmwbwlookup_tbb.dll
 0003:0000b5d0       DYNAMIC_DIMENSION          00000001800665d0     flightControlSystem_sfun_registry.obj
 0003:0000d9a0       __security_cookie          00000001800689a0     MSVCRT:gs_cookie.obj
 0003:0000d9a8       __security_cookie_complement 00000001800689a8     MSVCRT:gs_cookie.obj
 0003:0000d9b0       _fltused                   00000001800689b0     MSVCRT:fltused.obj
 0003:0000d9c0       __scrt_native_dllmain_reason 00000001800689c0     MSVCRT:utility.obj
 0003:0000d9c8       __isa_available            00000001800689c8     MSVCRT:_cpu_disp_.obj
 0003:0000d9cc       __isa_enabled              00000001800689cc     MSVCRT:_cpu_disp_.obj
 0003:0000d9d0       __memcpy_nt_iters          00000001800689d0     MSVCRT:_cpu_disp_.obj
 0003:0000d9e0       __scrt_ucrt_dll_is_in_use  00000001800689e0     MSVCRT:ucrt_stubs.obj
 0003:0000da28       sfGlobalDebugInstanceStruct 0000000180068a28     flightControlSystem_sfun_registry.obj
 0003:0000dfc0       ?__type_info_root_node@@3U__type_info_node@@A 0000000180068fc0     MSVCRT:tncleanup.obj
 0003:0000dfd0       ?_OptionsStorage@?1??__local_stdio_printf_options@@9@4_KA 0000000180068fd0     MSVCRT:default_local_stdio_options.obj
 0003:0000dfd8       ?_OptionsStorage@?1??__local_stdio_scanf_options@@9@4_KA 0000000180068fd8     MSVCRT:default_local_stdio_options.obj
 0003:0000dfe0       __scrt_current_native_startup_state 0000000180068fe0     MSVCRT:utility.obj
 0003:0000dfe8       __scrt_native_startup_lock 0000000180068fe8     MSVCRT:utility.obj
 0003:0000e024       __scrt_debugger_hook_flag  0000000180069024     MSVCRT:utility_desktop.obj
 0003:0000e028       __favor                    0000000180069028     MSVCRT:_cpu_disp_.obj
 0003:0000e030       ?_OptionsStorage@?1??__local_stdio_printf_options@@9@9 0000000180069030     <common>
 0003:0000e038       _flightControlSystemMachineNumber_ 0000000180069038     <common>
 0003:0000e040       __dyn_tls_init_callback    0000000180069040     <common>

 entry point at        0001:00054598

 Static symbols

 0000:00000000       .debug$S                   0000000180000000     libmx:libmx.dll
 0000:00000000       .debug$S                   0000000180000000     sf_runtime:sf_runtime.dll
 0000:00000000       .debug$S                   0000000180000000     sf_runtime:sf_runtime.dll
 0000:00000000       .debug$S                   0000000180000000     sf_runtime:sf_runtime.dll
 0000:00000000       .debug$S                   0000000180000000     sf_runtime:sf_runtime.dll
 0000:00000000       .debug$S                   0000000180000000     sf_runtime:sf_runtime.dll
 0000:00000000       .debug$S                   0000000180000000     flightControlSystem_sfun.exp
 0000:00000000       .debug$S                   0000000180000000     sf_runtime:sf_runtime.dll
 0000:00000000       .debug$S                   0000000180000000     sf_runtime:sf_runtime.dll
 0000:00000000       .debug$S                   0000000180000000     sf_runtime:sf_runtime.dll
 0000:00000000       .debug$S                   0000000180000000     sf_runtime:sf_runtime.dll
 0000:00000000       .debug$S                   0000000180000000     sf_runtime:sf_runtime.dll
 0000:00000000       .debug$S                   0000000180000000     sf_runtime:sf_runtime.dll
 0000:00000000       .debug$S                   0000000180000000     ucrt:api-ms-win-crt-runtime-l1-1-0.dll
 0000:00000000       .debug$S                   0000000180000000     ucrt:api-ms-win-crt-runtime-l1-1-0.dll
 0000:00000000       .debug$S                   0000000180000000     ucrt:api-ms-win-crt-runtime-l1-1-0.dll
 0000:00000000       .debug$S                   0000000180000000     ucrt:api-ms-win-crt-runtime-l1-1-0.dll
 0000:00000000       .debug$S                   0000000180000000     ucrt:api-ms-win-crt-runtime-l1-1-0.dll
 0000:00000000       .debug$S                   0000000180000000     ucrt:api-ms-win-crt-runtime-l1-1-0.dll
 0000:00000000       .debug$S                   0000000180000000     ucrt:api-ms-win-crt-runtime-l1-1-0.dll
 0000:00000000       .debug$S                   0000000180000000     ucrt:api-ms-win-crt-runtime-l1-1-0.dll
 0000:00000000       .debug$S                   0000000180000000     ucrt:api-ms-win-crt-runtime-l1-1-0.dll
 0000:00000000       .debug$S                   0000000180000000     ucrt:api-ms-win-crt-runtime-l1-1-0.dll
 0000:00000000       .debug$S                   0000000180000000     ucrt:api-ms-win-crt-runtime-l1-1-0.dll
 0000:00000000       .debug$S                   0000000180000000     ucrt:api-ms-win-crt-runtime-l1-1-0.dll
 0000:00000000       .debug$S                   0000000180000000     ucrt:api-ms-win-crt-string-l1-1-0.dll
 0000:00000000       .debug$S                   0000000180000000     ucrt:api-ms-win-crt-heap-l1-1-0.dll
 0000:00000000       .debug$S                   0000000180000000     ucrt:api-ms-win-crt-heap-l1-1-0.dll
 0000:00000000       .debug$S                   0000000180000000     ucrt:api-ms-win-crt-stdio-l1-1-0.dll
 0000:00000000       .debug$S                   0000000180000000     ucrt:api-ms-win-crt-math-l1-1-0.dll
 0000:00000000       .debug$S                   0000000180000000     ucrt:api-ms-win-crt-math-l1-1-0.dll
 0000:00000000       .debug$S                   0000000180000000     ucrt:api-ms-win-crt-string-l1-1-0.dll
 0000:00000000       .debug$S                   0000000180000000     sf_runtime:sf_runtime.dll
 0000:00000000       .debug$S                   0000000180000000     vcruntime:VCRUNTIME140.dll
 0000:00000000       .debug$S                   0000000180000000     vcruntime:VCRUNTIME140.dll
 0000:00000000       .debug$S                   0000000180000000     vcruntime:VCRUNTIME140.dll
 0000:00000000       .debug$S                   0000000180000000     vcruntime:VCRUNTIME140.dll
 0000:00000000       .debug$S                   0000000180000000     sf_runtime:sf_runtime.dll
 0000:00000000       .debug$S                   0000000180000000     kernel32:KERNEL32.dll
 0000:00000000       .debug$S                   0000000180000000     kernel32:KERNEL32.dll
 0000:00000000       .debug$S                   0000000180000000     kernel32:KERNEL32.dll
 0000:00000000       .debug$S                   0000000180000000     kernel32:KERNEL32.dll
 0000:00000000       .debug$S                   0000000180000000     kernel32:KERNEL32.dll
 0000:00000000       .debug$S                   0000000180000000     kernel32:KERNEL32.dll
 0000:00000000       .debug$S                   0000000180000000     kernel32:KERNEL32.dll
 0000:00000000       .debug$S                   0000000180000000     kernel32:KERNEL32.dll
 0000:00000000       .debug$S                   0000000180000000     kernel32:KERNEL32.dll
 0000:00000000       .debug$S                   0000000180000000     kernel32:KERNEL32.dll
 0000:00000000       .debug$S                   0000000180000000     kernel32:KERNEL32.dll
 0000:00000000       .debug$S                   0000000180000000     kernel32:KERNEL32.dll
 0000:00000000       .debug$S                   0000000180000000     kernel32:KERNEL32.dll
 0000:00000000       .debug$S                   0000000180000000     kernel32:KERNEL32.dll
 0000:00000000       .debug$S                   0000000180000000     kernel32:KERNEL32.dll
 0000:00000000       .debug$S                   0000000180000000     kernel32:KERNEL32.dll
 0000:00000000       .debug$S                   0000000180000000     kernel32:KERNEL32.dll
 0000:00000000       .debug$S                   0000000180000000     sf_runtime:sf_runtime.dll
 0000:00000000       .debug$S                   0000000180000000     sf_runtime:sf_runtime.dll
 0000:00000000       .debug$S                   0000000180000000     sf_runtime:sf_runtime.dll
 0000:00000000       .debug$S                   0000000180000000     sf_runtime:sf_runtime.dll
 0002:fffa9000       __guard_fids__guard_icall_checks_enforced 0000000180000000     MSVCRT:guard_support.obj
 0002:fffa9000       __guard_fids__             0000000180000000     MSVCRT:guard_support.obj
 0000:00000000       .debug$S                   0000000180000000     sf_runtime:sf_runtime.dll
 0000:00000000       .debug$S                   0000000180000000     sf_runtime:sf_runtime.dll
 0000:00000000       .debug$S                   0000000180000000     sf_runtime:sf_runtime.dll
 0000:00000000       .debug$S                   0000000180000000     sf_runtime:sf_runtime.dll
 0000:00000000       .debug$S                   0000000180000000     sf_runtime:sf_runtime.dll
 0000:00000000       .debug$S                   0000000180000000     sf_runtime:sf_runtime.dll
 0000:00000000       .debug$S                   0000000180000000     sf_runtime:sf_runtime.dll
 0000:00000000       .debug$S                   0000000180000000     sf_runtime:sf_runtime.dll
 0002:fffa9000       __guard_fids___scrt_set_unhandled_exception_filter 0000000180000000     MSVCRT:utility_desktop.obj
 0000:00000000       .debug$S                   0000000180000000     sf_runtime:sf_runtime.dll
 0000:00000000       .debug$S                   0000000180000000     sf_runtime:sf_runtime.dll
 0000:00000000       .debug$S                   0000000180000000     sf_runtime:sf_runtime.dll
 0000:00000000       .debug$S                   0000000180000000     sf_runtime:sf_runtime.dll
 0000:00000000       .debug$S                   0000000180000000     sf_runtime:sf_runtime.dll
 0000:00000000       .debug$S                   0000000180000000     sf_runtime:sf_runtime.dll
 0000:00000000       .debug$S                   0000000180000000     sf_runtime:sf_runtime.dll
 0000:00000000       .debug$S                   0000000180000000     sf_runtime:sf_runtime.dll
 0000:00000000       .debug$S                   0000000180000000     sf_runtime:sf_runtime.dll
 0000:00000000       .debug$S                   0000000180000000     sf_runtime:sf_runtime.dll
 0000:00000000       .debug$S                   0000000180000000     sf_runtime:sf_runtime.dll
 0000:00000000       .debug$S                   0000000180000000     sf_runtime:sf_runtime.dll
 0000:00000000       .debug$S                   0000000180000000     sf_runtime:sf_runtime.dll
 0000:00000000       .debug$S                   0000000180000000     sf_runtime:sf_runtime.dll
 0000:00000000       .debug$S                   0000000180000000     sf_runtime:sf_runtime.dll
 0000:00000000       .debug$S                   0000000180000000     sf_runtime:sf_runtime.dll
 0000:00000000       .debug$S                   0000000180000000     sf_runtime:sf_runtime.dll
 0000:00000000       .debug$S                   0000000180000000     sf_runtime:sf_runtime.dll
 0000:00000000       .debug$S                   0000000180000000     sf_runtime:sf_runtime.dll
 0000:00000000       .debug$S                   0000000180000000     sf_runtime:sf_runtime.dll
 0000:00000000       .debug$S                   0000000180000000     sf_runtime:sf_runtime.dll
 0000:00000000       .debug$S                   0000000180000000     sf_runtime:sf_runtime.dll
 0000:00000000       .debug$S                   0000000180000000     sf_runtime:sf_runtime.dll
 0000:00000000       .debug$S                   0000000180000000     sf_runtime:sf_runtime.dll
 0000:00000000       .debug$S                   0000000180000000     sf_runtime:sf_runtime.dll
 0000:00000000       .debug$S                   0000000180000000     sf_runtime:sf_runtime.dll
 0000:00000000       .debug$S                   0000000180000000     sf_runtime:sf_runtime.dll
 0000:00000000       .debug$S                   0000000180000000     sf_runtime:sf_runtime.dll
 0000:00000000       .debug$S                   0000000180000000     sf_runtime:sf_runtime.dll
 0000:00000000       .debug$S                   0000000180000000     sf_runtime:sf_runtime.dll
 0000:00000000       .debug$S                   0000000180000000     sf_runtime:sf_runtime.dll
 0000:00000000       .debug$S                   0000000180000000     sf_runtime:sf_runtime.dll
 0000:00000000       .debug$S                   0000000180000000     sf_runtime:sf_runtime.dll
 0000:00000000       .debug$S                   0000000180000000     sf_runtime:sf_runtime.dll
 0000:00000000       .debug$S                   0000000180000000     sf_runtime:sf_runtime.dll
 0000:00000000       .debug$S                   0000000180000000     libmx:libmx.dll
 0000:00000000       .debug$S                   0000000180000000     libmx:libmx.dll
 0000:00000000       .debug$S                   0000000180000000     libmx:libmx.dll
 0000:00000000       .debug$S                   0000000180000000     libmx:libmx.dll
 0000:00000000       .debug$S                   0000000180000000     libmx:libmx.dll
 0000:00000000       .debug$S                   0000000180000000     libmx:libmx.dll
 0000:00000000       .debug$S                   0000000180000000     libmx:libmx.dll
 0000:00000000       .debug$S                   0000000180000000     libmx:libmx.dll
 0000:00000000       .debug$S                   0000000180000000     libmx:libmx.dll
 0000:00000000       .debug$S                   0000000180000000     libmx:libmx.dll
 0000:00000000       .debug$S                   0000000180000000     libmx:libmx.dll
 0000:00000000       .debug$S                   0000000180000000     libmwbwlookup_tbb:libmwbwlookup_tbb.dll
 0000:00000000       .debug$S                   0000000180000000     libmx:libmx.dll
 0000:00000000       .debug$S                   0000000180000000     libmx:libmx.dll
 0000:00000000       .debug$S                   0000000180000000     libmx:libmx.dll
 0000:00000000       .debug$S                   0000000180000000     libmwcannythresholding_tbb:libmwcannythresholding_tbb.dll
 0000:00000000       .debug$S                   0000000180000000     libmx:libmx.dll
 0000:00000000       .debug$S                   0000000180000000     libmx:libmx.dll
 0000:00000000       .debug$S                   0000000180000000     libmwgrayto8:libmwgrayto8.dll
 0000:00000000       .debug$S                   0000000180000000     libmx:libmx.dll
 0000:00000000       .debug$S                   0000000180000000     libmwgrayto8:libmwgrayto8.dll
 0000:00000000       .debug$S                   0000000180000000     libmx:libmx.dll
 0000:00000000       .debug$S                   0000000180000000     libmx:libmx.dll
 0000:00000000       .debug$S                   0000000180000000     libmx:libmx.dll
 0000:00000000       .debug$S                   0000000180000000     libmwippfilter:libmwippfilter.dll
 0002:fffa9000       __guard_fids_?dllmain_dispatch@@YAHQEAUHINSTANCE__@@KQEAX@Z 0000000180000000     MSVCRT:dll_dllmain.obj
 0000:00000000       .debug$S                   0000000180000000     libmex:libmex.dll
 0000:00000000       .debug$S                   0000000180000000     libmex:libmex.dll
 0000:00000000       .debug$S                   0000000180000000     libmex:libmex.dll
 0000:00000000       .debug$S                   0000000180000000     libmwgetnumcores:libmwgetnumcores.dll
 0000:00000000       .debug$S                   0000000180000000     libmex:libmex.dll
 0000:00000000       .debug$S                   0000000180000000     libmex:libmex.dll
 0000:00000000       .debug$S                   0000000180000000     libmex:libmex.dll
 0000:00000000       .debug$S                   0000000180000000     libmwimfilter:libmwimfilter.dll
 0000:00000000       .debug$S                   0000000180000000     libmex:libmex.dll
 0000:00000000       .debug$S                   0000000180000000     libut:libut.dll
 0000:00000000       .debug$S                   0000000180000000     libmwimregionalmax:libmwimregionalmax.dll
 0000:00000000       .debug$S                   0000000180000000     libut:libut.dll
 0000:00000000       .debug$S                   0000000180000000     libmwordfilt2:libmwordfilt2.dll
 0000:00000000       .debug$S                   0000000180000000     libmwmathutil:libmwmathutil.dll
 0000:00000000       .debug$S                   0000000180000000     libmwippreconstruct:libmwippreconstruct.dll
 0000:00000000       .debug$S                   0000000180000000     libmwippreconstruct:libmwippreconstruct.dll
 0000:00000000       .debug$S                   0000000180000000     libmwmathutil:libmwmathutil.dll
 0000:00000000       .debug$S                   0000000180000000     sf_runtime:sf_runtime.dll
 0000:00000000       .debug$S                   0000000180000000     libmwmathutil:libmwmathutil.dll
 0000:00000000       .debug$S                   0000000180000000     sf_runtime:sf_runtime.dll
 0000:00000000       .debug$S                   0000000180000000     sf_runtime:sf_runtime.dll
 0000:00000000       .debug$S                   0000000180000000     sf_runtime:sf_runtime.dll
 0000:00000000       .debug$S                   0000000180000000     sf_runtime:sf_runtime.dll
 0000:00000000       .debug$S                   0000000180000000     libmwmathutil:libmwmathutil.dll
 0000:00000000       .debug$S                   0000000180000000     sf_runtime:sf_runtime.dll
 0000:00000000       .debug$S                   0000000180000000     libmwmathutil:libmwmathutil.dll
 0000:00000000       .debug$S                   0000000180000000     sf_runtime:sf_runtime.dll
 0000:00000000       .debug$S                   0000000180000000     libmwmathutil:libmwmathutil.dll
 0000:00000000       .debug$S                   0000000180000000     sf_runtime:sf_runtime.dll
 0000:00000000       .debug$S                   0000000180000000     sf_runtime:sf_runtime.dll
 0000:00000000       .debug$S                   0000000180000000     sf_runtime:sf_runtime.dll
 0000:00000000       .debug$S                   0000000180000000     libmwmathutil:libmwmathutil.dll
 0000:00000000       .debug$S                   0000000180000000     sf_runtime:sf_runtime.dll
 0000:00000000       .debug$S                   0000000180000000     libmwmathutil:libmwmathutil.dll
 0000:00000000       .debug$S                   0000000180000000     sf_runtime:sf_runtime.dll
 0000:00000000       .debug$S                   0000000180000000     libmwmathutil:libmwmathutil.dll
 0000:00000000       .debug$S                   0000000180000000     sf_runtime:sf_runtime.dll
 0000:00000000       .debug$S                   0000000180000000     libmwmathutil:libmwmathutil.dll
 0000:00000000       .debug$S                   0000000180000000     sf_runtime:sf_runtime.dll
 0000:00000000       .debug$S                   0000000180000000     libmwmathutil:libmwmathutil.dll
 0000:00000000       .debug$S                   0000000180000000     sf_runtime:sf_runtime.dll
 0000:00000000       .debug$S                   0000000180000000     sf_runtime:sf_runtime.dll
 0000:00000000       .debug$S                   0000000180000000     sf_runtime:sf_runtime.dll
 0000:00000000       .debug$S                   0000000180000000     sf_runtime:sf_runtime.dll
 0000:00000000       .debug$S                   0000000180000000     libmwmathutil:libmwmathutil.dll
 0000:00000000       .debug$S                   0000000180000000     libmwmathutil:libmwmathutil.dll
 0000:00000000       .debug$S                   0000000180000000     libmwmathutil:libmwmathutil.dll
 0000:00000000       .debug$S                   0000000180000000     libcovrt:libcovrt.dll
 0000:00000000       .debug$S                   0000000180000000     libcovrt:libcovrt.dll
 0000:00000000       .debug$S                   0000000180000000     libcovrt:libcovrt.dll
 0000:00000000       .debug$S                   0000000180000000     libcovrt:libcovrt.dll
 0000:00000000       .debug$S                   0000000180000000     libcovrt:libcovrt.dll
 0000:00000000       .debug$S                   0000000180000000     libcovrt:libcovrt.dll
 0000:00000000       .debug$S                   0000000180000000     libcovrt:libcovrt.dll
 0000:00000000       .debug$S                   0000000180000000     libcovrt:libcovrt.dll
 0000:00000000       .debug$S                   0000000180000000     libcovrt:libcovrt.dll
 0000:00000000       .debug$S                   0000000180000000     libcovrt:libcovrt.dll
 0000:00000000       .debug$S                   0000000180000000     libcovrt:libcovrt.dll
 0000:00000000       .debug$S                   0000000180000000     libcovrt:libcovrt.dll
 0000:00000000       .debug$S                   0000000180000000     libcovrt:libcovrt.dll
 0000:00000000       .debug$S                   0000000180000000     libcovrt:libcovrt.dll
 0000:00000000       .debug$S                   0000000180000000     libcovrt:libcovrt.dll
 0000:00000000       .debug$S                   0000000180000000     libcovrt:libcovrt.dll
 0000:00000000       .debug$S                   0000000180000000     libcovrt:libcovrt.dll
 0000:00000000       .debug$S                   0000000180000000     libcovrt:libcovrt.dll
 0000:00000000       .debug$S                   0000000180000000     libmwmathutil:libmwmathutil.dll
 0000:00000000       .debug$S                   0000000180000000     libemlrt:libemlrt.dll
 0000:00000000       .debug$S                   0000000180000000     libemlrt:libemlrt.dll
 0000:00000000       .debug$S                   0000000180000000     libemlrt:libemlrt.dll
 0000:00000000       .debug$S                   0000000180000000     libemlrt:libemlrt.dll
 0000:00000000       .debug$S                   0000000180000000     libemlrt:libemlrt.dll
 0000:00000000       .debug$S                   0000000180000000     libemlrt:libemlrt.dll
 0000:00000000       .debug$S                   0000000180000000     libmwmathutil:libmwmathutil.dll
 0000:00000000       .debug$S                   0000000180000000     libmwmathutil:libmwmathutil.dll
 0000:00000000       .debug$S                   0000000180000000     libmwmathutil:libmwmathutil.dll
 0000:00000000       .debug$S                   0000000180000000     libmwmathutil:libmwmathutil.dll
 0000:00000000       .debug$S                   0000000180000000     libmwmathutil:libmwmathutil.dll
 0000:00000000       .debug$S                   0000000180000000     libmwmathutil:libmwmathutil.dll
 0000:00000000       .debug$S                   0000000180000000     libmwmathutil:libmwmathutil.dll
 0001:000011c0       chart_debug_initialization 00000001800021c0 f   c2_flightControlSystem.obj
 0001:00001b00       chart_debug_initialize_data_addresses 0000000180002b00 f   c2_flightControlSystem.obj
 0001:00001d70       initialize_c2_flightControlSystem 0000000180002d70 f   c2_flightControlSystem.obj
 0001:00001e30       initialize_params_c2_flightControlSystem 0000000180002e30 f   c2_flightControlSystem.obj
 0001:00001e40       enable_c2_flightControlSystem 0000000180002e40 f   c2_flightControlSystem.obj
 0001:00001e70       disable_c2_flightControlSystem 0000000180002e70 f   c2_flightControlSystem.obj
 0001:00001ea0       c2_update_debugger_state_c2_flightControlSystem 0000000180002ea0 f   c2_flightControlSystem.obj
 0001:00001eb0       get_sim_state_c2_flightControlSystem 0000000180002eb0 f   c2_flightControlSystem.obj
 0001:000021c0       set_sim_state_c2_flightControlSystem 00000001800031c0 f   c2_flightControlSystem.obj
 0001:00002340       finalize_c2_flightControlSystem 0000000180003340 f   c2_flightControlSystem.obj
 0001:00002380       sf_gateway_c2_flightControlSystem 0000000180003380 f   c2_flightControlSystem.obj
 0001:00002830       mdl_start_c2_flightControlSystem 0000000180003830 f   c2_flightControlSystem.obj
 0001:00003050       c2_chartstep_c2_flightControlSystem 0000000180004050 f   c2_flightControlSystem.obj
 0001:00007b90       initSimStructsc2_flightControlSystem 0000000180008b90 f   c2_flightControlSystem.obj
 0001:00007ba0       init_script_number_translation 0000000180008ba0 f   c2_flightControlSystem.obj
 0001:00007bc0       c2_sf_marshallOut          0000000180008bc0 f   c2_flightControlSystem.obj
 0001:00007d30       c2_emlrt_marshallIn        0000000180008d30 f   c2_flightControlSystem.obj
 0001:00007e30       c2_sf_marshallIn           0000000180008e30 f   c2_flightControlSystem.obj
 0001:00007f80       c2_b_sf_marshallOut        0000000180008f80 f   c2_flightControlSystem.obj
 0001:000081e0       c2_b_emlrt_marshallIn      00000001800091e0 f   c2_flightControlSystem.obj
 0001:00008520       c2_b_sf_marshallIn         0000000180009520 f   c2_flightControlSystem.obj
 0001:00008780       c2_c_sf_marshallOut        0000000180009780 f   c2_flightControlSystem.obj
 0001:000088d0       c2_c_emlrt_marshallIn      00000001800098d0 f   c2_flightControlSystem.obj
 0001:000089d0       c2_c_sf_marshallIn         00000001800099d0 f   c2_flightControlSystem.obj
 0001:00008b10       c2_d_sf_marshallOut        0000000180009b10 f   c2_flightControlSystem.obj
 0001:00008c30       c2_e_sf_marshallOut        0000000180009c30 f   c2_flightControlSystem.obj
 0001:00008d50       c2_f_sf_marshallOut        0000000180009d50 f   c2_flightControlSystem.obj
 0001:00008fb0       c2_d_emlrt_marshallIn      0000000180009fb0 f   c2_flightControlSystem.obj
 0001:000092f0       c2_d_sf_marshallIn         000000018000a2f0 f   c2_flightControlSystem.obj
 0001:00009550       c2_g_sf_marshallOut        000000018000a550 f   c2_flightControlSystem.obj
 0001:00009b80       c2_e_emlrt_marshallIn      000000018000ab80 f   c2_flightControlSystem.obj
 0001:00009f60       c2_f_emlrt_marshallIn      000000018000af60 f   c2_flightControlSystem.obj
 0001:0000a040       c2_g_emlrt_marshallIn      000000018000b040 f   c2_flightControlSystem.obj
 0001:0000a0d0       c2_e_sf_marshallIn         000000018000b0d0 f   c2_flightControlSystem.obj
 0001:0000a2b0       c2_h_sf_marshallOut        000000018000b2b0 f   c2_flightControlSystem.obj
 0001:0000a360       c2_h_emlrt_marshallIn      000000018000b360 f   c2_flightControlSystem.obj
 0001:0000a3d0       c2_f_sf_marshallIn         000000018000b3d0 f   c2_flightControlSystem.obj
 0001:0000a480       c2_i_sf_marshallOut        000000018000b480 f   c2_flightControlSystem.obj
 0001:0000a5f0       c2_imhist                  000000018000b5f0 f   c2_flightControlSystem.obj
 0001:0000aba0       c2_validateattributes      000000018000bba0 f   c2_flightControlSystem.obj
 0001:0000af10       c2_isfinite                000000018000bf10 f   c2_flightControlSystem.obj
 0001:0000afe0       c2_edge                    000000018000bfe0 f   c2_flightControlSystem.obj
 0001:0000edc0       c2_imfilter                000000018000fdc0 f   c2_flightControlSystem.obj
 0001:0000f330       c2_padImage                0000000180010330 f   c2_flightControlSystem.obj
 0001:0000f4e0       c2_b_imfilter              00000001800104e0 f   c2_flightControlSystem.obj
 0001:0000fc80       c2_b_padImage              0000000180010c80 f   c2_flightControlSystem.obj
 0001:0000fe20       c2_c_imfilter              0000000180010e20 f   c2_flightControlSystem.obj
 0001:00010570       c2_d_imfilter              0000000180011570 f   c2_flightControlSystem.obj
 0001:00010d20       c2_hypot                   0000000180011d20 f   c2_flightControlSystem.obj
 0001:00010de0       c2_check_forloop_overflow_error 0000000180011de0 f   c2_flightControlSystem.obj
 0001:00010fe0       c2_warning                 0000000180011fe0 f   c2_flightControlSystem.obj
 0001:000111b0       c2_eml_find                00000001800121b0 f   c2_flightControlSystem.obj
 0001:00011950       c2_indexShapeCheck         0000000180012950 f   c2_flightControlSystem.obj
 0001:00011b60       c2_b_warning               0000000180012b60 f   c2_flightControlSystem.obj
 0001:00011d30       c2_validate_inputs         0000000180012d30 f   c2_flightControlSystem.obj
 0001:00012000       c2_make_bitarray           0000000180013000 f   c2_flightControlSystem.obj
 0001:00012170       c2_num_true                0000000180013170 f   c2_flightControlSystem.obj
 0001:00012270       c2_allinrange              0000000180013270 f   c2_flightControlSystem.obj
 0001:00012380       c2_imfill                  0000000180013380 f   c2_flightControlSystem.obj
 0001:00012b80       c2_isequal                 0000000180013b80 f   c2_flightControlSystem.obj
 0001:00012c80       c2_checkLocations          0000000180013c80 f   c2_flightControlSystem.obj
 0001:00013500       c2_b_validateattributes    0000000180014500 f   c2_flightControlSystem.obj
 0001:00013c70       c2_any                     0000000180014c70 f   c2_flightControlSystem.obj
 0001:00013fa0       c2_c_warning               0000000180014fa0 f   c2_flightControlSystem.obj
 0001:00014170       c2_b_isequal               0000000180015170 f   c2_flightControlSystem.obj
 0001:00014270       c2_all                     0000000180015270 f   c2_flightControlSystem.obj
 0001:00014430       c2_b_all                   0000000180015430 f   c2_flightControlSystem.obj
 0001:000144c0       c2_c_padImage              00000001800154c0 f   c2_flightControlSystem.obj
 0001:00014660       c2_e_imfilter              0000000180015660 f   c2_flightControlSystem.obj
 0001:00014b30       c2_d_padImage              0000000180015b30 f   c2_flightControlSystem.obj
 0001:00014cd0       c2_f_imfilter              0000000180015cd0 f   c2_flightControlSystem.obj
 0001:000151a0       c2_b_isfinite              00000001800161a0 f   c2_flightControlSystem.obj
 0001:00015270       c2_imfindcircles           0000000180016270 f   c2_flightControlSystem.obj
 0001:00019440       c2_chaccum                 000000018001a440 f   c2_flightControlSystem.obj
 0001:0001f850       c2_multithresh             0000000180020850 f   c2_flightControlSystem.obj
 0001:00020f30       c2_getpdf                  0000000180021f30 f   c2_flightControlSystem.obj
 0001:00021b60       c2_im2uint8                0000000180022b60 f   c2_flightControlSystem.obj
 0001:00021c10       c2_b_imhist                0000000180022c10 f   c2_flightControlSystem.obj
 0001:00022270       c2_sum                     0000000180023270 f   c2_flightControlSystem.obj
 0001:00022300       c2_d_warning               0000000180023300 f   c2_flightControlSystem.obj
 0001:00022550       c2_calcFullObjCriteriaMatrix 0000000180023550 f   c2_flightControlSystem.obj
 0001:00022710       c2_sortIdx                 0000000180023710 f   c2_flightControlSystem.obj
 0001:00022bb0       c2_sortLE                  0000000180023bb0 f   c2_flightControlSystem.obj
 0001:00022ca0       c2_count_nonfinites        0000000180023ca0 f   c2_flightControlSystem.obj
 0001:00022e50       c2_checkForDegenerateInput 0000000180023e50 f   c2_flightControlSystem.obj
 0001:000242a0       c2_e_warning               00000001800252a0 f   c2_flightControlSystem.obj
 0001:00024470       c2_getDegenerateThresholds 0000000180025470 f   c2_flightControlSystem.obj
 0001:00025840       c2_abs                     0000000180026840 f   c2_flightControlSystem.obj
 0001:00025a10       c2_eps                     0000000180026a10 f   c2_flightControlSystem.obj
 0001:00025ba0       c2_toLogicalCheck          0000000180026ba0 f   c2_flightControlSystem.obj
 0001:00025bc0       c2_chcenters               0000000180026bc0 f   c2_flightControlSystem.obj
 0001:00029f70       c2_medfilt2                000000018002af70 f   c2_flightControlSystem.obj
 0001:0002c350       c2_padarray                000000018002d350 f   c2_flightControlSystem.obj
 0001:0002d650       c2_regionprops             000000018002e650 f   c2_flightControlSystem.obj
 0001:000334e0       c2_bwconncomp              00000001800344e0 f   c2_flightControlSystem.obj
 0001:00036560       c2_assertValidSizeArg      0000000180037560 f   c2_flightControlSystem.obj
 0001:00036a70       c2_b_allinrange            0000000180037a70 f   c2_flightControlSystem.obj
 0001:00036b60       c2_b_sum                   0000000180037b60 f   c2_flightControlSystem.obj
 0001:00036e80       c2_c_all                   0000000180037e80 f   c2_flightControlSystem.obj
 0001:000371b0       c2_houghpeaks              00000001800381b0 f   c2_flightControlSystem.obj
 0001:00039500       c2_c_validateattributes    000000018003a500 f   c2_flightControlSystem.obj
 0001:00039ca0       c2_diff                    000000018003aca0 f   c2_flightControlSystem.obj
 0001:00039d70       c2_houghlines              000000018003ad70 f   c2_flightControlSystem.obj
 0001:0003ee70       c2_b_sortLE                000000018003fe70 f   c2_flightControlSystem.obj
 0001:0003f020       c2_emlrt_marshallOut       0000000180040020 f   c2_flightControlSystem.obj
 0001:0003f0b0       c2_b_emlrt_marshallOut     00000001800400b0 f   c2_flightControlSystem.obj
 0001:0003f140       c2_j_emlrt_marshallIn      0000000180040140 f   c2_flightControlSystem.obj
 0001:0003f1b0       c2_k_emlrt_marshallIn      00000001800401b0 f   c2_flightControlSystem.obj
 0001:0003f240       c2_b_round                 0000000180040240 f   c2_flightControlSystem.obj
 0001:0003f340       c2_d_nullAssignment        0000000180040340 f   c2_flightControlSystem.obj
 0001:0003faa0       c2_e_nullAssignment        0000000180040aa0 f   c2_flightControlSystem.obj
 0001:000401c0       c2_f_nullAssignment        00000001800411c0 f   c2_flightControlSystem.obj
 0001:00040900       c2_c_sort                  0000000180041900 f   c2_flightControlSystem.obj
 0001:00042030       c2_b_merge_pow2_block      0000000180043030 f   c2_flightControlSystem.obj
 0001:000425a0       c2_c_merge_block           00000001800435a0 f   c2_flightControlSystem.obj
 0001:00042820       c2_c_merge                 0000000180043820 f   c2_flightControlSystem.obj
 0001:00042ce0       c2_d_sort                  0000000180043ce0 f   c2_flightControlSystem.obj
 0001:00044e80       c2_d_merge_block           0000000180045e80 f   c2_flightControlSystem.obj
 0001:00045100       c2_d_merge                 0000000180046100 f   c2_flightControlSystem.obj
 0001:000455c0       c2_b_sortrows              00000001800465c0 f   c2_flightControlSystem.obj
 0001:00046740       c2_emxEnsureCapacity_real_T 0000000180047740 f   c2_flightControlSystem.obj
 0001:000468c0       c2_emxEnsureCapacity_skoeQIuVNKJRH 00000001800478c0 f   c2_flightControlSystem.obj
 0001:00046a40       c2_emxInit_real_T          0000000180047a40 f   c2_flightControlSystem.obj
 0001:00046b40       c2_emxInit_skoeQIuVNKJRHNtBIlOCZhD 0000000180047b40 f   c2_flightControlSystem.obj
 0001:00046c40       c2_emxFree_real_T          0000000180047c40 f   c2_flightControlSystem.obj
 0001:00046cc0       c2_emxFree_skoeQIuVNKJRHNtBIlOCZhD 0000000180047cc0 f   c2_flightControlSystem.obj
 0001:00046d40       c2_emxEnsureCapacity_real_T1 0000000180047d40 f   c2_flightControlSystem.obj
 0001:00046ec0       c2_emxEnsureCapacity_int32_T 0000000180047ec0 f   c2_flightControlSystem.obj
 0001:00047040       c2_emxInit_int32_T         0000000180048040 f   c2_flightControlSystem.obj
 0001:00047140       c2_emxInit_real_T1         0000000180048140 f   c2_flightControlSystem.obj
 0001:00047240       c2_emxFree_int32_T         0000000180048240 f   c2_flightControlSystem.obj
 0001:000472c0       c2_emxEnsureCapacity_boolean_T 00000001800482c0 f   c2_flightControlSystem.obj
 0001:00047440       c2_emxEnsureCapacity_boolean_T1 0000000180048440 f   c2_flightControlSystem.obj
 0001:000475c0       c2_emxEnsureCapacity_creal_T 00000001800485c0 f   c2_flightControlSystem.obj
 0001:00047740       c2_emxInit_boolean_T       0000000180048740 f   c2_flightControlSystem.obj
 0001:00047840       c2_emxInit_creal_T         0000000180048840 f   c2_flightControlSystem.obj
 0001:00047940       c2_emxInit_boolean_T1      0000000180048940 f   c2_flightControlSystem.obj
 0001:00047a40       c2_emxFree_boolean_T       0000000180048a40 f   c2_flightControlSystem.obj
 0001:00047ac0       c2_emxFree_creal_T         0000000180048ac0 f   c2_flightControlSystem.obj
 0001:00047b40       c2_emxEnsureCapacity_real32_T 0000000180048b40 f   c2_flightControlSystem.obj
 0001:00047cc0       c2_emxEnsureCapacity_creal_T1 0000000180048cc0 f   c2_flightControlSystem.obj
 0001:00047e40       c2_emxInit_real32_T        0000000180048e40 f   c2_flightControlSystem.obj
 0001:00047f40       c2_emxInit_creal_T1        0000000180048f40 f   c2_flightControlSystem.obj
 0001:00048040       c2_emxFree_real32_T        0000000180049040 f   c2_flightControlSystem.obj
 0001:000480c0       c2_emxEnsureCapacity_real32_T1 00000001800490c0 f   c2_flightControlSystem.obj
 0001:00048240       c2_emxInit_real32_T1       0000000180049240 f   c2_flightControlSystem.obj
 0001:00048340       c2_emxEnsureCapacity_int32_T1 0000000180049340 f   c2_flightControlSystem.obj
 0001:000484c0       c2_emxInit_sBO2RC5RVZVTbundPSRqHnH 00000001800494c0 f   c2_flightControlSystem.obj
 0001:000485c0       c2_emxInit_int32_T1        00000001800495c0 f   c2_flightControlSystem.obj
 0001:000486c0       c2_emxFree_sBO2RC5RVZVTbundPSRqHnH 00000001800496c0 f   c2_flightControlSystem.obj
 0001:00048740       c2_emxEnsureCapacity_sBO2RC5RVZVTb 0000000180049740 f   c2_flightControlSystem.obj
 0001:000488c0       c2_emxFreeStruct_s9uuw2Xu7QLvohu1q 00000001800498c0 f   c2_flightControlSystem.obj
 0001:00048930       c2_emxTrim_s9uuw2Xu7QLvohu1q5iD2hG 0000000180049930 f   c2_flightControlSystem.obj
 0001:000489a0       c2_emxInitStruct_s9uuw2Xu7QLvohu1q 00000001800499a0 f   c2_flightControlSystem.obj
 0001:00048ac0       c2_emxExpand_s9uuw2Xu7QLvohu1q5iD2 0000000180049ac0 f   c2_flightControlSystem.obj
 0001:00048b30       c2_emxEnsureCapacity_s9uuw2Xu7QLvo 0000000180049b30 f   c2_flightControlSystem.obj
 0001:00048d10       c2_emxCopyStruct_s9uuw2Xu7QLvohu1q 0000000180049d10 f   c2_flightControlSystem.obj
 0001:00049040       c2_emxCopyMatrix_real_T    000000018004a040 f   c2_flightControlSystem.obj
 0001:000490a0       c2_emxCopyMatrix_real_T1   000000018004a0a0 f   c2_flightControlSystem.obj
 0001:00049100       c2_emxCopy_boolean_T_0x0   000000018004a100 f   c2_flightControlSystem.obj
 0001:000491d0       c2_emxCopyMatrix_real_T2   000000018004a1d0 f   c2_flightControlSystem.obj
 0001:00049230       c2_emxCopy_real_T          000000018004a230 f   c2_flightControlSystem.obj
 0001:00049380       c2_emxCopy_real_T1         000000018004a380 f   c2_flightControlSystem.obj
 0001:000494d0       c2_emxCopy_real_T_1x0      000000018004a4d0 f   c2_flightControlSystem.obj
 0001:000495a0       c2_emxInitStruct_scIvRXQeSh8yxCxSm 000000018004a5a0 f   c2_flightControlSystem.obj
 0001:00049600       c2_emxInit_s9uuw2Xu7QLvohu1q5iD2hG 000000018004a600 f   c2_flightControlSystem.obj
 0001:00049700       c2_emxInitMatrix_cell_wrap_49 000000018004a700 f   c2_flightControlSystem.obj
 0001:00049760       c2_emxInitStruct_cell_wrap_49 000000018004a760 f   c2_flightControlSystem.obj
 0001:000497a0       c2_emxFreeStruct_scIvRXQeSh8yxCxSm 000000018004a7a0 f   c2_flightControlSystem.obj
 0001:000497f0       c2_emxFree_s9uuw2Xu7QLvohu1q5iD2hG 000000018004a7f0 f   c2_flightControlSystem.obj
 0001:00049910       c2_emxFreeMatrix_cell_wrap_49 000000018004a910 f   c2_flightControlSystem.obj
 0001:00049970       c2_emxFreeStruct_cell_wrap_49 000000018004a970 f   c2_flightControlSystem.obj
 0001:000499a0       c2_div_nzp_s32             000000018004a9a0 f   c2_flightControlSystem.obj
 0001:00049a80       init_dsm_address_info      000000018004aa80 f   c2_flightControlSystem.obj
 0001:00049a90       init_simulink_io_address   000000018004aa90 f   c2_flightControlSystem.obj
 0001:00049ed0       sf_get_sim_state_info_c2_flightControlSystem 000000018004aed0 f   c2_flightControlSystem.obj
 0001:00049f90       sf_opaque_initialize_c2_flightControlSystem 000000018004af90 f   c2_flightControlSystem.obj
 0001:00049fd0       sf_opaque_enable_c2_flightControlSystem 000000018004afd0 f   c2_flightControlSystem.obj
 0001:00049ff0       sf_opaque_disable_c2_flightControlSystem 000000018004aff0 f   c2_flightControlSystem.obj
 0001:0004a010       sf_opaque_gateway_c2_flightControlSystem 000000018004b010 f   c2_flightControlSystem.obj
 0001:0004a030       sf_opaque_get_sim_state_c2_flightControlSystem 000000018004b030 f   c2_flightControlSystem.obj
 0001:0004a060       sf_opaque_set_sim_state_c2_flightControlSystem 000000018004b060 f   c2_flightControlSystem.obj
 0001:0004a090       sf_opaque_terminate_c2_flightControlSystem 000000018004b090 f   c2_flightControlSystem.obj
 0001:0004a130       mdlProcessParameters_c2_flightControlSystem 000000018004b130 f   c2_flightControlSystem.obj
 0001:0004a210       mdlSetWorkWidths_c2_flightControlSystem 000000018004b210 f   c2_flightControlSystem.obj
 0001:0004a290       mdlRTW_c2_flightControlSystem 000000018004b290 f   c2_flightControlSystem.obj
 0001:0004a2d0       mdlStart_c2_flightControlSystem 000000018004b2d0 f   c2_flightControlSystem.obj
 0001:0004ca18       $LN180                     000000018004da18     flightControlSystem_sfun_registry.obj
 0001:0004d804       $LN17                      000000018004e804     flightControlSystem_sfun_registry.obj
 0001:0004df04       $LN26                      000000018004ef04     flightControlSystem_sfun_registry.obj
 0001:0004e5e4       $LN23                      000000018004f5e4     flightControlSystem_sfun_registry.obj
 0001:0004f19c       $LN26                      000000018005019c     flightControlSystem_sfun_registry.obj
 0001:00051b50       sf_debug_api_wrapper       0000000180052b50 f   flightControlSystem_sfun_registry.obj
 0001:00051ba0       ProcessMexSfunctionCmdLineCall 0000000180052ba0 f   flightControlSystem_sfun_registry.obj
 0001:00051f10       mdlSetWorkWidths           0000000180052f10 f   flightControlSystem_sfun_registry.obj
 0001:00051f60       mdlProcessParameters       0000000180052f60 f   flightControlSystem_sfun_registry.obj
 0001:00051f90       mdl_start_processing       0000000180052f90 f   flightControlSystem_sfun_registry.obj
 0001:00051ff0       mdl_terminate_processing   0000000180052ff0 f   flightControlSystem_sfun_registry.obj
 0001:000520b0       mdlStart                   00000001800530b0 f   flightControlSystem_sfun_registry.obj
 0001:000520e0       mdlTerminate               00000001800530e0 f   flightControlSystem_sfun_registry.obj
 0001:00052110       mdlInitializeSizes         0000000180053110 f   flightControlSystem_sfun_registry.obj
 0001:00052140       mdlInitializeSampleTimes   0000000180053140 f   flightControlSystem_sfun_registry.obj
 0001:00052170       mdl_outputs_continuous_legacy 0000000180053170 f   flightControlSystem_sfun_registry.obj
 0001:00052270       mdl_outputs_processing     0000000180053270 f   flightControlSystem_sfun_registry.obj
 0001:00052390       mdl_zeroCrossings_processing 0000000180053390 f   flightControlSystem_sfun_registry.obj
 0001:000523d0       mdlZeroCrossings           00000001800533d0 f   flightControlSystem_sfun_registry.obj
 0001:00052400       mdl_derivatives_processing 0000000180053400 f   flightControlSystem_sfun_registry.obj
 0001:00052450       mdlDerivatives             0000000180053450 f   flightControlSystem_sfun_registry.obj
 0001:00052480       mdl_initialize_conditions_processing 0000000180053480 f   flightControlSystem_sfun_registry.obj
 0001:000524d0       mdlInitializeConditions    00000001800534d0 f   flightControlSystem_sfun_registry.obj
 0001:00052500       mdl_ext_mode_exec_processing 0000000180053500 f   flightControlSystem_sfun_registry.obj
 0001:00052540       mdlExtModeExec             0000000180053540 f   flightControlSystem_sfun_registry.obj
 0001:00052570       mdlRTW                     0000000180053570 f   flightControlSystem_sfun_registry.obj
 0001:000525b0       mdl_enable_processing      00000001800535b0 f   flightControlSystem_sfun_registry.obj
 0001:000525f0       mdlEnable                  00000001800535f0 f   flightControlSystem_sfun_registry.obj
 0001:00052620       mdl_disable_processing     0000000180053620 f   flightControlSystem_sfun_registry.obj
 0001:00052660       mdlDisable                 0000000180053660 f   flightControlSystem_sfun_registry.obj
 0001:00052690       mdlOutputs                 0000000180053690 f   flightControlSystem_sfun_registry.obj
 0001:000526c0       mdl_update_processing      00000001800536c0 f   flightControlSystem_sfun_registry.obj
 0001:00052710       mdlUpdate                  0000000180053710 f   flightControlSystem_sfun_registry.obj
 0001:000528f0       mdlGetTimeOfNextVarHit     00000001800538f0 f   flightControlSystem_sfun_registry.obj
 0001:00052940       _RegNumInputPortsCB        0000000180053940 f   flightControlSystem_sfun_registry.obj
 0001:000529c0       _RegNumOutputPortsCB       00000001800539c0 f   flightControlSystem_sfun_registry.obj
 0001:00052a40       _CreateSimStruct           0000000180053a40 f   flightControlSystem_sfun_registry.obj
 0001:00052c40       _ProcessMexSfunctionCmdLineCall 0000000180053c40 f   flightControlSystem_sfun_registry.obj
 0001:00053680       ReportIndexOutOfBoundsError 0000000180054680 f   flightControlSystem_sfun_registry.obj
 0001:00054048       capture_current_context    0000000180055048 f   MSVCRT:gs_report.obj
 0001:000540b8       capture_previous_context   00000001800550b8 f   MSVCRT:gs_report.obj
 0001:000541b0       $$000000                   00000001800551b0     MSVCRT:_amdsecgs_.obj
 0001:000541f0       $$000000                   00000001800551f0     MSVCRT:_chkstk_.obj
 0001:00054254       ?dllmain_crt_dispatch@@YAHQEAUHINSTANCE__@@KQEAX@Z 0000000180055254 f   MSVCRT:dll_dllmain.obj
 0001:000542a4       ?dllmain_crt_process_attach@@YAHQEAUHINSTANCE__@@QEAX@Z 00000001800552a4 f   MSVCRT:dll_dllmain.obj
 0001:000543bc       ?dllmain_crt_process_detach@@YAH_N@Z 00000001800553bc f   MSVCRT:dll_dllmain.obj
 0001:00054440       ?dllmain_dispatch@@YAHQEAUHINSTANCE__@@KQEAX@Z 0000000180055440 f   MSVCRT:dll_dllmain.obj
 0001:00054574       ?dllmain_raw@@YAHQEAUHINSTANCE__@@KQEAX@Z 0000000180055574 f   MSVCRT:dll_dllmain.obj
 0001:000545d8       __get_entropy              00000001800555d8 f   MSVCRT:gs_support.obj
 0001:000547b0       ?find_pe_section@@YAPEAU_IMAGE_SECTION_HEADER@@QEAE_K@Z 00000001800557b0 f   MSVCRT:utility.obj
 0001:00054804       ?is_potentially_valid_image_base@@YA_NQEAX@Z 0000000180055804 f   MSVCRT:utility.obj
 0001:00055220       $$000000                   0000000180056220     MSVCRT:_guard_dispatch_.obj
 0001:00055232       ?fin$0@?0??dllmain_crt_process_attach@@YAHQEAUHINSTANCE__@@QEAX@Z@4HA 0000000180056232 f   MSVCRT:dll_dllmain.obj
 0001:00055249       ?fin$0@?0??dllmain_crt_process_detach@@YAH_N@Z@4HA 0000000180056249 f   MSVCRT:dll_dllmain.obj
 0001:00055265       ?filt$0@?0??dllmain_dispatch@@YAHQEAUHINSTANCE__@@KQEAX@Z@4HA 0000000180056265 f   MSVCRT:dll_dllmain.obj
 0001:0005529b       __scrt_is_nonwritable_in_current_image$filt$0 000000018005629b f   MSVCRT:utility.obj
 0002:000007d0       c2_cv0                     00000001800577d0     c2_flightControlSystem.obj
 0002:00000800       c2_cv1                     0000000180057800     c2_flightControlSystem.obj
 0002:00000820       c2_cv2                     0000000180057820     c2_flightControlSystem.obj
 0002:00000840       c2_cv3                     0000000180057840     c2_flightControlSystem.obj
 0002:00000868       c2_cv5                     0000000180057868     c2_flightControlSystem.obj
 0002:00000898       c2_cv7                     0000000180057898     c2_flightControlSystem.obj
 0002:000008d0       c2_dv0                     00000001800578d0     c2_flightControlSystem.obj
 0002:00000938       c2_cv4                     0000000180057938     c2_flightControlSystem.obj
 0002:00000954       ?c2_decisionTxtStartIdx@?1??mdl_start_c2_flightControlSystem@@9@9 0000000180057954     c2_flightControlSystem.obj
 0002:00000958       c2_cv6                     0000000180057958     c2_flightControlSystem.obj
 0002:00000988       c2_cv8                     0000000180057988     c2_flightControlSystem.obj
 0002:000009b8       c2_cv9                     00000001800579b8     c2_flightControlSystem.obj
 0002:000009dc       ?c2_decisionTxtEndIdx@?1??mdl_start_c2_flightControlSystem@@9@9 00000001800579dc     c2_flightControlSystem.obj
 0002:000009e0       c2_cv10                    00000001800579e0     c2_flightControlSystem.obj
 0002:000009f0       c2_cv11                    00000001800579f0     c2_flightControlSystem.obj
 0002:00000a10       c2_cv12                    0000000180057a10     c2_flightControlSystem.obj
 0002:00000a38       ?c2_condTxtStartIdx@?1??mdl_start_c2_flightControlSystem@@9@9 0000000180057a38     c2_flightControlSystem.obj
 0002:00000a40       ?c2_condTxtEndIdx@?1??mdl_start_c2_flightControlSystem@@9@9 0000000180057a40     c2_flightControlSystem.obj
 0002:00000a48       ?c2_postfixPredicateTree@?1??mdl_start_c2_flightControlSystem@@9@9 0000000180057a48     c2_flightControlSystem.obj
 0002:00000a58       ?c2_b_condTxtStartIdx@?1??mdl_start_c2_flightControlSystem@@9@9 0000000180057a58     c2_flightControlSystem.obj
 0002:00000a60       ?c2_b_condTxtEndIdx@?1??mdl_start_c2_flightControlSystem@@9@9 0000000180057a60     c2_flightControlSystem.obj
 0002:00000a68       ?c2_b_postfixPredicateTree@?1??mdl_start_c2_flightControlSystem@@9@9 0000000180057a68     c2_flightControlSystem.obj
 0002:00000a78       ?c2_c_condTxtStartIdx@?1??mdl_start_c2_flightControlSystem@@9@9 0000000180057a78     c2_flightControlSystem.obj
 0002:00000a80       ?c2_c_condTxtEndIdx@?1??mdl_start_c2_flightControlSystem@@9@9 0000000180057a80     c2_flightControlSystem.obj
 0002:00000a88       ?c2_c_postfixPredicateTree@?1??mdl_start_c2_flightControlSystem@@9@9 0000000180057a88     c2_flightControlSystem.obj
 0002:00000cd0       GS_ExceptionPointers       0000000180057cd0     MSVCRT:gs_report.obj
 0002:00001048       $unwind$load_flightControlSystem_optimization_info 0000000180058048     flightControlSystem_sfun.obj
 0002:00001050       $unwind$unload_flightControlSystem_optimization_info 0000000180058050     flightControlSystem_sfun.obj
 0002:00001058       $unwind$sf_flightControlSystem_method_dispatcher 0000000180058058     flightControlSystem_sfun.obj
 0002:00001060       $unwind$sf_flightControlSystem_process_check_sum_call 0000000180058060     flightControlSystem_sfun.obj
 0002:00001070       $unwind$sf_flightControlSystem_get_eml_resolved_functions_info 0000000180058070     flightControlSystem_sfun.obj
 0002:00001080       $unwind$sf_flightControlSystem_third_party_uses_info 0000000180058080     flightControlSystem_sfun.obj
 0002:00001090       $unwind$sf_flightControlSystem_jit_fallback_info 0000000180058090     flightControlSystem_sfun.obj
 0002:000010a0       $unwind$sf_flightControlSystem_get_post_codegen_info 00000001800580a0     flightControlSystem_sfun.obj
 0002:000010b0       $unwind$sf_flightControlSystem_updateBuildInfo_args_info 00000001800580b0     flightControlSystem_sfun.obj
 0002:000010c0       $unwind$flightControlSystem_debug_initialize 00000001800580c0     flightControlSystem_sfun.obj
 0002:000010c8       $unwind$sf_c2_flightControlSystem_get_eml_resolved_functions_info 00000001800580c8     c2_flightControlSystem.obj
 0002:000010d0       $unwind$sf_c2_flightControlSystem_get_check_sum 00000001800580d0     c2_flightControlSystem.obj
 0002:000010d8       $unwind$c2_flightControlSystem_method_dispatcher 00000001800580d8     c2_flightControlSystem.obj
 0002:000010e0       $unwind$chart_debug_initialization 00000001800580e0     c2_flightControlSystem.obj
 0002:000010e8       $unwind$chart_debug_initialize_data_addresses 00000001800580e8     c2_flightControlSystem.obj
 0002:000010f0       $unwind$initialize_c2_flightControlSystem 00000001800580f0     c2_flightControlSystem.obj
 0002:000010f8       $unwind$enable_c2_flightControlSystem 00000001800580f8     c2_flightControlSystem.obj
 0002:00001100       $unwind$disable_c2_flightControlSystem 0000000180058100     c2_flightControlSystem.obj
 0002:00001108       $unwind$get_sim_state_c2_flightControlSystem 0000000180058108     c2_flightControlSystem.obj
 0002:00001110       $unwind$set_sim_state_c2_flightControlSystem 0000000180058110     c2_flightControlSystem.obj
 0002:00001118       $unwind$finalize_c2_flightControlSystem 0000000180058118     c2_flightControlSystem.obj
 0002:00001120       $unwind$sf_gateway_c2_flightControlSystem 0000000180058120     c2_flightControlSystem.obj
 0002:00001128       $unwind$mdl_start_c2_flightControlSystem 0000000180058128     c2_flightControlSystem.obj
 0002:00001130       $unwind$c2_chartstep_c2_flightControlSystem 0000000180058130     c2_flightControlSystem.obj
 0002:00001144       $unwind$c2_sf_marshallOut  0000000180058144     c2_flightControlSystem.obj
 0002:00001154       $unwind$c2_emlrt_marshallIn 0000000180058154     c2_flightControlSystem.obj
 0002:00001164       $unwind$c2_sf_marshallIn   0000000180058164     c2_flightControlSystem.obj
 0002:00001174       $unwind$c2_b_sf_marshallOut 0000000180058174     c2_flightControlSystem.obj
 0002:0000117c       $unwind$c2_b_emlrt_marshallIn 000000018005817c     c2_flightControlSystem.obj
 0002:00001184       $unwind$c2_b_sf_marshallIn 0000000180058184     c2_flightControlSystem.obj
 0002:0000118c       $unwind$c2_c_sf_marshallOut 000000018005818c     c2_flightControlSystem.obj
 0002:00001194       $unwind$c2_c_emlrt_marshallIn 0000000180058194     c2_flightControlSystem.obj
 0002:0000119c       $unwind$c2_c_sf_marshallIn 000000018005819c     c2_flightControlSystem.obj
 0002:000011a4       $unwind$c2_d_sf_marshallOut 00000001800581a4     c2_flightControlSystem.obj
 0002:000011b4       $unwind$c2_e_sf_marshallOut 00000001800581b4     c2_flightControlSystem.obj
 0002:000011c4       $unwind$c2_f_sf_marshallOut 00000001800581c4     c2_flightControlSystem.obj
 0002:000011cc       $unwind$c2_d_emlrt_marshallIn 00000001800581cc     c2_flightControlSystem.obj
 0002:000011d4       $unwind$c2_d_sf_marshallIn 00000001800581d4     c2_flightControlSystem.obj
 0002:000011dc       $unwind$c2_g_sf_marshallOut 00000001800581dc     c2_flightControlSystem.obj
 0002:000011e8       $unwind$c2_e_emlrt_marshallIn 00000001800581e8     c2_flightControlSystem.obj
 0002:000011f0       $unwind$c2_f_emlrt_marshallIn 00000001800581f0     c2_flightControlSystem.obj
 0002:000011f8       $unwind$c2_g_emlrt_marshallIn 00000001800581f8     c2_flightControlSystem.obj
 0002:00001200       $unwind$c2_e_sf_marshallIn 0000000180058200     c2_flightControlSystem.obj
 0002:0000120c       $unwind$c2_h_sf_marshallOut 000000018005820c     c2_flightControlSystem.obj
 0002:00001214       $unwind$c2_h_emlrt_marshallIn 0000000180058214     c2_flightControlSystem.obj
 0002:0000121c       $unwind$c2_f_sf_marshallIn 000000018005821c     c2_flightControlSystem.obj
 0002:00001224       $unwind$c2_i_sf_marshallOut 0000000180058224     c2_flightControlSystem.obj
 0002:00001234       $unwind$c2_imhist          0000000180058234     c2_flightControlSystem.obj
 0002:00001244       $unwind$c2_validateattributes 0000000180058244     c2_flightControlSystem.obj
 0002:0000124c       $unwind$c2_isfinite        000000018005824c     c2_flightControlSystem.obj
 0002:00001254       $unwind$c2_edge            0000000180058254     c2_flightControlSystem.obj
 0002:00001264       $unwind$c2_imfilter        0000000180058264     c2_flightControlSystem.obj
 0002:00001274       $unwind$c2_padImage        0000000180058274     c2_flightControlSystem.obj
 0002:0000127c       $unwind$c2_b_imfilter      000000018005827c     c2_flightControlSystem.obj
 0002:0000128c       $unwind$c2_b_padImage      000000018005828c     c2_flightControlSystem.obj
 0002:00001294       $unwind$c2_c_imfilter      0000000180058294     c2_flightControlSystem.obj
 0002:000012a4       $unwind$c2_d_imfilter      00000001800582a4     c2_flightControlSystem.obj
 0002:000012b4       $unwind$c2_hypot           00000001800582b4     c2_flightControlSystem.obj
 0002:000012bc       $unwind$c2_check_forloop_overflow_error 00000001800582bc     c2_flightControlSystem.obj
 0002:000012c4       $unwind$c2_warning         00000001800582c4     c2_flightControlSystem.obj
 0002:000012cc       $unwind$c2_eml_find        00000001800582cc     c2_flightControlSystem.obj
 0002:000012d4       $unwind$c2_indexShapeCheck 00000001800582d4     c2_flightControlSystem.obj
 0002:000012dc       $unwind$c2_b_warning       00000001800582dc     c2_flightControlSystem.obj
 0002:000012e4       $unwind$c2_validate_inputs 00000001800582e4     c2_flightControlSystem.obj
 0002:000012ec       $unwind$c2_make_bitarray   00000001800582ec     c2_flightControlSystem.obj
 0002:000012f4       $unwind$c2_num_true        00000001800582f4     c2_flightControlSystem.obj
 0002:000012fc       $unwind$c2_allinrange      00000001800582fc     c2_flightControlSystem.obj
 0002:00001304       $unwind$c2_imfill          0000000180058304     c2_flightControlSystem.obj
 0002:00001314       $unwind$c2_isequal         0000000180058314     c2_flightControlSystem.obj
 0002:0000131c       $unwind$c2_checkLocations  000000018005831c     c2_flightControlSystem.obj
 0002:0000132c       $unwind$c2_b_validateattributes 000000018005832c     c2_flightControlSystem.obj
 0002:00001334       $unwind$c2_any             0000000180058334     c2_flightControlSystem.obj
 0002:0000133c       $unwind$c2_c_warning       000000018005833c     c2_flightControlSystem.obj
 0002:00001344       $unwind$c2_b_isequal       0000000180058344     c2_flightControlSystem.obj
 0002:0000134c       $unwind$c2_all             000000018005834c     c2_flightControlSystem.obj
 0002:00001354       $unwind$c2_b_all           0000000180058354     c2_flightControlSystem.obj
 0002:0000135c       $unwind$c2_c_padImage      000000018005835c     c2_flightControlSystem.obj
 0002:00001364       $unwind$c2_e_imfilter      0000000180058364     c2_flightControlSystem.obj
 0002:00001374       $unwind$c2_d_padImage      0000000180058374     c2_flightControlSystem.obj
 0002:0000137c       $unwind$c2_f_imfilter      000000018005837c     c2_flightControlSystem.obj
 0002:0000138c       $unwind$c2_b_isfinite      000000018005838c     c2_flightControlSystem.obj
 0002:00001394       $unwind$c2_imfindcircles   0000000180058394     c2_flightControlSystem.obj
 0002:000013a8       $unwind$c2_chaccum         00000001800583a8     c2_flightControlSystem.obj
 0002:000013b8       $unwind$c2_multithresh     00000001800583b8     c2_flightControlSystem.obj
 0002:000013c8       $unwind$c2_getpdf          00000001800583c8     c2_flightControlSystem.obj
 0002:000013d8       $unwind$c2_im2uint8        00000001800583d8     c2_flightControlSystem.obj
 0002:000013e0       $unwind$c2_b_imhist        00000001800583e0     c2_flightControlSystem.obj
 0002:000013f0       $unwind$c2_sum             00000001800583f0     c2_flightControlSystem.obj
 0002:000013f8       $unwind$c2_d_warning       00000001800583f8     c2_flightControlSystem.obj
 0002:00001400       $unwind$c2_calcFullObjCriteriaMatrix 0000000180058400     c2_flightControlSystem.obj
 0002:00001410       $unwind$c2_sortIdx         0000000180058410     c2_flightControlSystem.obj
 0002:00001418       $unwind$c2_sortLE          0000000180058418     c2_flightControlSystem.obj
 0002:00001420       $unwind$c2_count_nonfinites 0000000180058420     c2_flightControlSystem.obj
 0002:00001428       $unwind$c2_checkForDegenerateInput 0000000180058428     c2_flightControlSystem.obj
 0002:00001438       $unwind$c2_e_warning       0000000180058438     c2_flightControlSystem.obj
 0002:00001440       $unwind$c2_getDegenerateThresholds 0000000180058440     c2_flightControlSystem.obj
 0002:00001450       $unwind$c2_abs             0000000180058450     c2_flightControlSystem.obj
 0002:00001458       $unwind$c2_eps             0000000180058458     c2_flightControlSystem.obj
 0002:00001460       $unwind$c2_chcenters       0000000180058460     c2_flightControlSystem.obj
 0002:00001474       $unwind$c2_medfilt2        0000000180058474     c2_flightControlSystem.obj
 0002:00001484       $unwind$c2_padarray        0000000180058484     c2_flightControlSystem.obj
 0002:0000148c       $unwind$c2_regionprops     000000018005848c     c2_flightControlSystem.obj
 0002:000014a0       $unwind$c2_bwconncomp      00000001800584a0     c2_flightControlSystem.obj
 0002:000014a8       $unwind$c2_assertValidSizeArg 00000001800584a8     c2_flightControlSystem.obj
 0002:000014b0       $unwind$c2_b_allinrange    00000001800584b0     c2_flightControlSystem.obj
 0002:000014b8       $unwind$c2_b_sum           00000001800584b8     c2_flightControlSystem.obj
 0002:000014c0       $unwind$c2_c_all           00000001800584c0     c2_flightControlSystem.obj
 0002:000014c8       $unwind$c2_houghpeaks      00000001800584c8     c2_flightControlSystem.obj
 0002:000014d8       $unwind$c2_c_validateattributes 00000001800584d8     c2_flightControlSystem.obj
 0002:000014e0       $unwind$c2_diff            00000001800584e0     c2_flightControlSystem.obj
 0002:000014e8       $unwind$c2_houghlines      00000001800584e8     c2_flightControlSystem.obj
 0002:000014fc       $unwind$c2_b_sortLE        00000001800584fc     c2_flightControlSystem.obj
 0002:00001504       $unwind$c2_emlrt_marshallOut 0000000180058504     c2_flightControlSystem.obj
 0002:0000150c       $unwind$c2_b_emlrt_marshallOut 000000018005850c     c2_flightControlSystem.obj
 0002:00001514       $unwind$c2_j_emlrt_marshallIn 0000000180058514     c2_flightControlSystem.obj
 0002:0000151c       $unwind$c2_k_emlrt_marshallIn 000000018005851c     c2_flightControlSystem.obj
 0002:00001524       $unwind$c2_b_round         0000000180058524     c2_flightControlSystem.obj
 0002:0000152c       $unwind$c2_d_nullAssignment 000000018005852c     c2_flightControlSystem.obj
 0002:0000153c       $unwind$c2_e_nullAssignment 000000018005853c     c2_flightControlSystem.obj
 0002:00001544       $unwind$c2_f_nullAssignment 0000000180058544     c2_flightControlSystem.obj
 0002:0000154c       $unwind$c2_c_sort          000000018005854c     c2_flightControlSystem.obj
 0002:0000155c       $unwind$c2_b_merge_pow2_block 000000018005855c     c2_flightControlSystem.obj
 0002:0000156c       $unwind$c2_c_merge_block   000000018005856c     c2_flightControlSystem.obj
 0002:00001574       $unwind$c2_c_merge         0000000180058574     c2_flightControlSystem.obj
 0002:0000157c       $unwind$c2_d_sort          000000018005857c     c2_flightControlSystem.obj
 0002:0000158c       $unwind$c2_d_merge_block   000000018005858c     c2_flightControlSystem.obj
 0002:00001594       $unwind$c2_d_merge         0000000180058594     c2_flightControlSystem.obj
 0002:0000159c       $unwind$c2_b_sortrows      000000018005859c     c2_flightControlSystem.obj
 0002:000015a4       $unwind$c2_emxEnsureCapacity_real_T 00000001800585a4     c2_flightControlSystem.obj
 0002:000015ac       $unwind$c2_emxEnsureCapacity_skoeQIuVNKJRH 00000001800585ac     c2_flightControlSystem.obj
 0002:000015b4       $unwind$c2_emxInit_real_T  00000001800585b4     c2_flightControlSystem.obj
 0002:000015bc       $unwind$c2_emxInit_skoeQIuVNKJRHNtBIlOCZhD 00000001800585bc     c2_flightControlSystem.obj
 0002:000015c4       $unwind$c2_emxFree_real_T  00000001800585c4     c2_flightControlSystem.obj
 0002:000015cc       $unwind$c2_emxFree_skoeQIuVNKJRHNtBIlOCZhD 00000001800585cc     c2_flightControlSystem.obj
 0002:000015d4       $unwind$c2_emxEnsureCapacity_real_T1 00000001800585d4     c2_flightControlSystem.obj
 0002:000015dc       $unwind$c2_emxEnsureCapacity_int32_T 00000001800585dc     c2_flightControlSystem.obj
 0002:000015e4       $unwind$c2_emxInit_int32_T 00000001800585e4     c2_flightControlSystem.obj
 0002:000015ec       $unwind$c2_emxInit_real_T1 00000001800585ec     c2_flightControlSystem.obj
 0002:000015f4       $unwind$c2_emxFree_int32_T 00000001800585f4     c2_flightControlSystem.obj
 0002:000015fc       $unwind$c2_emxEnsureCapacity_boolean_T 00000001800585fc     c2_flightControlSystem.obj
 0002:00001604       $unwind$c2_emxEnsureCapacity_boolean_T1 0000000180058604     c2_flightControlSystem.obj
 0002:0000160c       $unwind$c2_emxEnsureCapacity_creal_T 000000018005860c     c2_flightControlSystem.obj
 0002:00001614       $unwind$c2_emxInit_boolean_T 0000000180058614     c2_flightControlSystem.obj
 0002:0000161c       $unwind$c2_emxInit_creal_T 000000018005861c     c2_flightControlSystem.obj
 0002:00001624       $unwind$c2_emxInit_boolean_T1 0000000180058624     c2_flightControlSystem.obj
 0002:0000162c       $unwind$c2_emxFree_boolean_T 000000018005862c     c2_flightControlSystem.obj
 0002:00001634       $unwind$c2_emxFree_creal_T 0000000180058634     c2_flightControlSystem.obj
 0002:0000163c       $unwind$c2_emxEnsureCapacity_real32_T 000000018005863c     c2_flightControlSystem.obj
 0002:00001644       $unwind$c2_emxEnsureCapacity_creal_T1 0000000180058644     c2_flightControlSystem.obj
 0002:0000164c       $unwind$c2_emxInit_real32_T 000000018005864c     c2_flightControlSystem.obj
 0002:00001654       $unwind$c2_emxInit_creal_T1 0000000180058654     c2_flightControlSystem.obj
 0002:0000165c       $unwind$c2_emxFree_real32_T 000000018005865c     c2_flightControlSystem.obj
 0002:00001664       $unwind$c2_emxEnsureCapacity_real32_T1 0000000180058664     c2_flightControlSystem.obj
 0002:0000166c       $unwind$c2_emxInit_real32_T1 000000018005866c     c2_flightControlSystem.obj
 0002:00001674       $unwind$c2_emxEnsureCapacity_int32_T1 0000000180058674     c2_flightControlSystem.obj
 0002:0000167c       $unwind$c2_emxInit_sBO2RC5RVZVTbundPSRqHnH 000000018005867c     c2_flightControlSystem.obj
 0002:00001684       $unwind$c2_emxInit_int32_T1 0000000180058684     c2_flightControlSystem.obj
 0002:0000168c       $unwind$c2_emxFree_sBO2RC5RVZVTbundPSRqHnH 000000018005868c     c2_flightControlSystem.obj
 0002:00001694       $unwind$c2_emxEnsureCapacity_sBO2RC5RVZVTb 0000000180058694     c2_flightControlSystem.obj
 0002:0000169c       $unwind$c2_emxFreeStruct_s9uuw2Xu7QLvohu1q 000000018005869c     c2_flightControlSystem.obj
 0002:000016a4       $unwind$c2_emxTrim_s9uuw2Xu7QLvohu1q5iD2hG 00000001800586a4     c2_flightControlSystem.obj
 0002:000016ac       $unwind$c2_emxInitStruct_s9uuw2Xu7QLvohu1q 00000001800586ac     c2_flightControlSystem.obj
 0002:000016b4       $unwind$c2_emxExpand_s9uuw2Xu7QLvohu1q5iD2 00000001800586b4     c2_flightControlSystem.obj
 0002:000016bc       $unwind$c2_emxEnsureCapacity_s9uuw2Xu7QLvo 00000001800586bc     c2_flightControlSystem.obj
 0002:000016c4       $unwind$c2_emxCopyStruct_s9uuw2Xu7QLvohu1q 00000001800586c4     c2_flightControlSystem.obj
 0002:000016cc       $unwind$c2_emxCopyMatrix_real_T 00000001800586cc     c2_flightControlSystem.obj
 0002:000016d4       $unwind$c2_emxCopyMatrix_real_T1 00000001800586d4     c2_flightControlSystem.obj
 0002:000016dc       $unwind$c2_emxCopy_boolean_T_0x0 00000001800586dc     c2_flightControlSystem.obj
 0002:000016e4       $unwind$c2_emxCopyMatrix_real_T2 00000001800586e4     c2_flightControlSystem.obj
 0002:000016ec       $unwind$c2_emxCopy_real_T  00000001800586ec     c2_flightControlSystem.obj
 0002:000016f4       $unwind$c2_emxCopy_real_T1 00000001800586f4     c2_flightControlSystem.obj
 0002:000016fc       $unwind$c2_emxCopy_real_T_1x0 00000001800586fc     c2_flightControlSystem.obj
 0002:00001704       $unwind$c2_emxInitStruct_scIvRXQeSh8yxCxSm 0000000180058704     c2_flightControlSystem.obj
 0002:0000170c       $unwind$c2_emxInit_s9uuw2Xu7QLvohu1q5iD2hG 000000018005870c     c2_flightControlSystem.obj
 0002:00001714       $unwind$c2_emxInitMatrix_cell_wrap_49 0000000180058714     c2_flightControlSystem.obj
 0002:0000171c       $unwind$c2_emxInitStruct_cell_wrap_49 000000018005871c     c2_flightControlSystem.obj
 0002:00001724       $unwind$c2_emxFreeStruct_scIvRXQeSh8yxCxSm 0000000180058724     c2_flightControlSystem.obj
 0002:0000172c       $unwind$c2_emxFree_s9uuw2Xu7QLvohu1q5iD2hG 000000018005872c     c2_flightControlSystem.obj
 0002:00001734       $unwind$c2_emxFreeMatrix_cell_wrap_49 0000000180058734     c2_flightControlSystem.obj
 0002:0000173c       $unwind$c2_emxFreeStruct_cell_wrap_49 000000018005873c     c2_flightControlSystem.obj
 0002:00001744       $unwind$c2_div_nzp_s32     0000000180058744     c2_flightControlSystem.obj
 0002:0000174c       $unwind$init_simulink_io_address 000000018005874c     c2_flightControlSystem.obj
 0002:00001754       $unwind$sf_c2_flightControlSystem_third_party_uses_info 0000000180058754     c2_flightControlSystem.obj
 0002:0000175c       $unwind$sf_c2_flightControlSystem_jit_fallback_info 000000018005875c     c2_flightControlSystem.obj
 0002:0000176c       $unwind$sf_c2_flightControlSystem_updateBuildInfo_args_info 000000018005876c     c2_flightControlSystem.obj
 0002:00001774       $unwind$sf_get_sim_state_info_c2_flightControlSystem 0000000180058774     c2_flightControlSystem.obj
 0002:0000177c       $unwind$sf_opaque_initialize_c2_flightControlSystem 000000018005877c     c2_flightControlSystem.obj
 0002:00001784       $unwind$sf_opaque_enable_c2_flightControlSystem 0000000180058784     c2_flightControlSystem.obj
 0002:0000178c       $unwind$sf_opaque_disable_c2_flightControlSystem 000000018005878c     c2_flightControlSystem.obj
 0002:00001794       $unwind$sf_opaque_gateway_c2_flightControlSystem 0000000180058794     c2_flightControlSystem.obj
 0002:0000179c       $unwind$sf_opaque_get_sim_state_c2_flightControlSystem 000000018005879c     c2_flightControlSystem.obj
 0002:000017a4       $unwind$sf_opaque_set_sim_state_c2_flightControlSystem 00000001800587a4     c2_flightControlSystem.obj
 0002:000017ac       $unwind$sf_opaque_terminate_c2_flightControlSystem 00000001800587ac     c2_flightControlSystem.obj
 0002:000017b4       $unwind$mdlProcessParameters_c2_flightControlSystem 00000001800587b4     c2_flightControlSystem.obj
 0002:000017bc       $unwind$mdlSetWorkWidths_c2_flightControlSystem 00000001800587bc     c2_flightControlSystem.obj
 0002:000017c4       $unwind$mdlRTW_c2_flightControlSystem 00000001800587c4     c2_flightControlSystem.obj
 0002:000017cc       $unwind$mdlStart_c2_flightControlSystem 00000001800587cc     c2_flightControlSystem.obj
 0002:000017d4       $unwind$_vsnprintf_l       00000001800587d4     flightControlSystem_sfun_registry.obj
 0002:000017dc       $unwind$_vsprintf_l        00000001800587dc     flightControlSystem_sfun_registry.obj
 0002:000017e4       $unwind$sprintf            00000001800587e4     flightControlSystem_sfun_registry.obj
 0002:000017ec       $unwind$mexFunction        00000001800587ec     flightControlSystem_sfun_registry.obj
 0002:000017fc       $unwind$_ssSetInputPortDirectFeedThroughFcn 00000001800587fc     flightControlSystem_sfun_registry.obj
 0002:0000180c       $unwind$_ssSetRWorkValueFcn 000000018005880c     flightControlSystem_sfun_registry.obj
 0002:00001814       $unwind$_ssGetRWorkValueFcn 0000000180058814     flightControlSystem_sfun_registry.obj
 0002:0000181c       $unwind$_ssSetIWorkValueFcn 000000018005881c     flightControlSystem_sfun_registry.obj
 0002:00001824       $unwind$_ssGetIWorkValueFcn 0000000180058824     flightControlSystem_sfun_registry.obj
 0002:0000182c       $unwind$_ssSetPWorkValueFcn 000000018005882c     flightControlSystem_sfun_registry.obj
 0002:00001834       $unwind$_ssGetPWorkValueFcn 0000000180058834     flightControlSystem_sfun_registry.obj
 0002:0000183c       $unwind$_ssGetInputPortSignalFcn 000000018005883c     flightControlSystem_sfun_registry.obj
 0002:0000184c       $unwind$_ssGetInputPortBufferDstPortFcn 000000018005884c     flightControlSystem_sfun_registry.obj
 0002:00001854       $unwind$_ssGetInputPortSignalPtrsFcn 0000000180058854     flightControlSystem_sfun_registry.obj
 0002:00001864       $unwind$ssGetParameterTuningCompliance 0000000180058864     flightControlSystem_sfun_registry.obj
 0002:0000186c       $unwind$ssGetDTypeIdFromMxArray 000000018005886c     flightControlSystem_sfun_registry.obj
 0002:00001874       $unwind$ssWriteRTWMx2dMatParam 0000000180058874     flightControlSystem_sfun_registry.obj
 0002:0000187c       $unwind$ssWriteRTWMxVectParam 000000018005887c     flightControlSystem_sfun_registry.obj
 0002:00001884       $unwind$ssWriteRTWParameters 0000000180058884     flightControlSystem_sfun_registry.obj
 0002:0000188c       $unwind$ssWriteRTWParamSettings 000000018005888c     flightControlSystem_sfun_registry.obj
 0002:00001894       $unwind$ssWriteRTWStr      0000000180058894     flightControlSystem_sfun_registry.obj
 0002:0000189c       $unwind$ssWriteRTWWorkVect 000000018005889c     flightControlSystem_sfun_registry.obj
 0002:000018b0       $unwind$ssWarning          00000001800588b0     flightControlSystem_sfun_registry.obj
 0002:000018c4       $unwind$ssWriteRTWNameValuePair 00000001800588c4     flightControlSystem_sfun_registry.obj
 0002:000018cc       $unwind$_ssSetInputPortMatrixDimensions 00000001800588cc     flightControlSystem_sfun_registry.obj
 0002:000018d8       $unwind$_ssSetOutputPortMatrixDimensions 00000001800588d8     flightControlSystem_sfun_registry.obj
 0002:000018e4       $unwind$_ssSetInputPortVectorDimension 00000001800588e4     flightControlSystem_sfun_registry.obj
 0002:000018f0       $unwind$_ssSetOutputPortVectorDimension 00000001800588f0     flightControlSystem_sfun_registry.obj
 0002:000018fc       $unwind$ssIsRunTimeParamTunable 00000001800588fc     flightControlSystem_sfun_registry.obj
 0002:00001904       $unwind$ssGetSFuncBlockHandle 0000000180058904     flightControlSystem_sfun_registry.obj
 0002:0000190c       $unwind$_ssGetCurrentInputPortWidth 000000018005890c     flightControlSystem_sfun_registry.obj
 0002:00001914       $unwind$_ssGetCurrentOutputPortWidth 0000000180058914     flightControlSystem_sfun_registry.obj
 0002:0000191c       $unwind$_ssGetCallSystemNumFcnCallDestinations 000000018005891c     flightControlSystem_sfun_registry.obj
 0002:00001924       $unwind$ssGetIsZeroCrossControlDisabled 0000000180058924     flightControlSystem_sfun_registry.obj
 0002:0000192c       $unwind$ssSetIsInputPortUsedForContZcSignal 000000018005892c     flightControlSystem_sfun_registry.obj
 0002:00001934       $unwind$ssSetZcSignalIsZcElementDisc 0000000180058934     flightControlSystem_sfun_registry.obj
 0002:00001944       $unwind$ssSetZcSignalName  0000000180058944     flightControlSystem_sfun_registry.obj
 0002:0000194c       $unwind$ssSetZcSignalWidth 000000018005894c     flightControlSystem_sfun_registry.obj
 0002:00001954       $unwind$ssSetZcSignalZcEventType 0000000180058954     flightControlSystem_sfun_registry.obj
 0002:0000195c       $unwind$ssSetZcSignalType  000000018005895c     flightControlSystem_sfun_registry.obj
 0002:00001964       $unwind$ssSetZcSignalZcTol 0000000180058964     flightControlSystem_sfun_registry.obj
 0002:0000196c       $unwind$ssSetZcSignalNeedsEventNotification 000000018005896c     flightControlSystem_sfun_registry.obj
 0002:00001974       $unwind$ssCreateAndAddZcSignalInfo 0000000180058974     flightControlSystem_sfun_registry.obj
 0002:0000197c       $unwind$ssCloneAndAddZcSignalInfo 000000018005897c     flightControlSystem_sfun_registry.obj
 0002:00001984       $unwind$ssGetNumZcSignals  0000000180058984     flightControlSystem_sfun_registry.obj
 0002:0000198c       $unwind$ssGetZcSignalVector 000000018005898c     flightControlSystem_sfun_registry.obj
 0002:00001994       $unwind$ssGetZcSignalName  0000000180058994     flightControlSystem_sfun_registry.obj
 0002:0000199c       $unwind$ssGetZcSignalWidth 000000018005899c     flightControlSystem_sfun_registry.obj
 0002:000019a4       $unwind$ssGetZcSignalZcEventType 00000001800589a4     flightControlSystem_sfun_registry.obj
 0002:000019ac       $unwind$ssGetZcSignalZcEvents 00000001800589ac     flightControlSystem_sfun_registry.obj
 0002:000019b4       $unwind$ssGetZcSignalType  00000001800589b4     flightControlSystem_sfun_registry.obj
 0002:000019bc       $unwind$ssGetZcSignalZcTol 00000001800589bc     flightControlSystem_sfun_registry.obj
 0002:000019c4       $unwind$ssGetZcSignalNeedsEventNotification 00000001800589c4     flightControlSystem_sfun_registry.obj
 0002:000019cc       $unwind$ssGetZcSignalIsZcElementDisc 00000001800589cc     flightControlSystem_sfun_registry.obj
 0002:000019dc       $unwind$ssGetIsInputPortElementContinuous 00000001800589dc     flightControlSystem_sfun_registry.obj
 0002:000019ec       $unwind$_ssGetAbsTol       00000001800589ec     flightControlSystem_sfun_registry.obj
 0002:000019f4       $unwind$_ssSetInputPortReusableFcn 00000001800589f4     flightControlSystem_sfun_registry.obj
 0002:000019fc       $unwind$_ssSetOutputPortReusableFcn 00000001800589fc     flightControlSystem_sfun_registry.obj
 0002:00001a04       $unwind$_ssSetSymbolicDimsSupport 0000000180058a04     flightControlSystem_sfun_registry.obj
 0002:00001a0c       $unwind$_ssRegisterSymbolicDimsExpr 0000000180058a0c     flightControlSystem_sfun_registry.obj
 0002:00001a14       $unwind$_ssRegisterSymbolicDims 0000000180058a14     flightControlSystem_sfun_registry.obj
 0002:00001a1c       $unwind$_ssRegisterSymbolicDimsString 0000000180058a1c     flightControlSystem_sfun_registry.obj
 0002:00001a24       $unwind$_ssRegisterSymbolicDimsIntValue 0000000180058a24     flightControlSystem_sfun_registry.obj
 0002:00001a2c       $unwind$_ssRegisterSymbolicDimsPlus 0000000180058a2c     flightControlSystem_sfun_registry.obj
 0002:00001a34       $unwind$_ssRegisterSymbolicDimsMinus 0000000180058a34     flightControlSystem_sfun_registry.obj
 0002:00001a3c       $unwind$_ssRegisterSymbolicDimsMultiply 0000000180058a3c     flightControlSystem_sfun_registry.obj
 0002:00001a44       $unwind$_ssRegisterSymbolicDimsDivide 0000000180058a44     flightControlSystem_sfun_registry.obj
 0002:00001a4c       $unwind$_ssGetNumSymbolicDims 0000000180058a4c     flightControlSystem_sfun_registry.obj
 0002:00001a54       $unwind$_ssGetSymbolicDim  0000000180058a54     flightControlSystem_sfun_registry.obj
 0002:00001a5c       $unwind$_ssSetInputPortSymbolicDimsId 0000000180058a5c     flightControlSystem_sfun_registry.obj
 0002:00001a64       $unwind$_ssGetCompInputPortSymbolicDimsId 0000000180058a64     flightControlSystem_sfun_registry.obj
 0002:00001a6c       $unwind$_ssSetCompInputPortSymbolicDimsId 0000000180058a6c     flightControlSystem_sfun_registry.obj
 0002:00001a74       $unwind$_ssSetOutputPortSymbolicDimsId 0000000180058a74     flightControlSystem_sfun_registry.obj
 0002:00001a7c       $unwind$_ssGetCompOutputPortSymbolicDimsId 0000000180058a7c     flightControlSystem_sfun_registry.obj
 0002:00001a84       $unwind$_ssSetCompOutputPortSymbolicDimsId 0000000180058a84     flightControlSystem_sfun_registry.obj
 0002:00001a8c       $unwind$_ssSetCompDWorkSymbolicDimsId 0000000180058a8c     flightControlSystem_sfun_registry.obj
 0002:00001a94       $unwind$sf_process_check_sum_call 0000000180058a94     flightControlSystem_sfun_registry.obj
 0002:00001a9c       $unwind$sf_process_get_third_party_uses_info_call 0000000180058a9c     flightControlSystem_sfun_registry.obj
 0002:00001aac       $unwind$sf_process_get_jit_fallback_info_call 0000000180058aac     flightControlSystem_sfun_registry.obj
 0002:00001abc       $unwind$sf_process_get_post_codegen_info_call 0000000180058abc     flightControlSystem_sfun_registry.obj
 0002:00001acc       $unwind$sf_process_get_updateBuildInfo_args_info_call 0000000180058acc     flightControlSystem_sfun_registry.obj
 0002:00001adc       $unwind$sf_process_get_eml_resolved_functions_info_call 0000000180058adc     flightControlSystem_sfun_registry.obj
 0002:00001aec       $unwind$sf_mex_unlock_call 0000000180058aec     flightControlSystem_sfun_registry.obj
 0002:00001afc       $unwind$sf_debug_api_wrapper 0000000180058afc     flightControlSystem_sfun_registry.obj
 0002:00001b04       $unwind$ProcessMexSfunctionCmdLineCall 0000000180058b04     flightControlSystem_sfun_registry.obj
 0002:00001b0c       $unwind$sf_machine_global_initializer_called 0000000180058b0c     flightControlSystem_sfun_registry.obj
 0002:00001b14       $unwind$sf_machine_global_method_dispatcher 0000000180058b14     flightControlSystem_sfun_registry.obj
 0002:00001b1c       $unwind$sf_machine_global_terminator 0000000180058b1c     flightControlSystem_sfun_registry.obj
 0002:00001b24       $unwind$sf_register_machine_exported_symbols 0000000180058b24     flightControlSystem_sfun_registry.obj
 0002:00001b2c       $unwind$sf_machine_global_initializer 0000000180058b2c     flightControlSystem_sfun_registry.obj
 0002:00001b34       $unwind$mdlGetSimState     0000000180058b34     flightControlSystem_sfun_registry.obj
 0002:00001b3c       $unwind$mdlSetSimState     0000000180058b3c     flightControlSystem_sfun_registry.obj
 0002:00001b44       $unwind$mdlSetWorkWidths   0000000180058b44     flightControlSystem_sfun_registry.obj
 0002:00001b4c       $unwind$mdlProcessParameters 0000000180058b4c     flightControlSystem_sfun_registry.obj
 0002:00001b54       $unwind$mdl_start_processing 0000000180058b54     flightControlSystem_sfun_registry.obj
 0002:00001b5c       $unwind$mdl_terminate_processing 0000000180058b5c     flightControlSystem_sfun_registry.obj
 0002:00001b64       $unwind$mdlStart           0000000180058b64     flightControlSystem_sfun_registry.obj
 0002:00001b6c       $unwind$mdlTerminate       0000000180058b6c     flightControlSystem_sfun_registry.obj
 0002:00001b74       $unwind$mdlInitializeSizes 0000000180058b74     flightControlSystem_sfun_registry.obj
 0002:00001b7c       $unwind$mdlInitializeSampleTimes 0000000180058b7c     flightControlSystem_sfun_registry.obj
 0002:00001b84       $unwind$mdl_outputs_continuous_legacy 0000000180058b84     flightControlSystem_sfun_registry.obj
 0002:00001b8c       $unwind$mdl_outputs_processing 0000000180058b8c     flightControlSystem_sfun_registry.obj
 0002:00001b94       $unwind$mdl_zeroCrossings_processing 0000000180058b94     flightControlSystem_sfun_registry.obj
 0002:00001b9c       $unwind$mdlZeroCrossings   0000000180058b9c     flightControlSystem_sfun_registry.obj
 0002:00001ba4       $unwind$mdl_derivatives_processing 0000000180058ba4     flightControlSystem_sfun_registry.obj
 0002:00001bac       $unwind$mdlDerivatives     0000000180058bac     flightControlSystem_sfun_registry.obj
 0002:00001bb4       $unwind$mdl_initialize_conditions_processing 0000000180058bb4     flightControlSystem_sfun_registry.obj
 0002:00001bbc       $unwind$mdlInitializeConditions 0000000180058bbc     flightControlSystem_sfun_registry.obj
 0002:00001bc4       $unwind$mdl_ext_mode_exec_processing 0000000180058bc4     flightControlSystem_sfun_registry.obj
 0002:00001bcc       $unwind$mdlExtModeExec     0000000180058bcc     flightControlSystem_sfun_registry.obj
 0002:00001bd4       $unwind$mdlRTW             0000000180058bd4     flightControlSystem_sfun_registry.obj
 0002:00001bdc       $unwind$mdl_enable_processing 0000000180058bdc     flightControlSystem_sfun_registry.obj
 0002:00001be4       $unwind$mdlEnable          0000000180058be4     flightControlSystem_sfun_registry.obj
 0002:00001bec       $unwind$mdl_disable_processing 0000000180058bec     flightControlSystem_sfun_registry.obj
 0002:00001bf4       $unwind$mdlDisable         0000000180058bf4     flightControlSystem_sfun_registry.obj
 0002:00001bfc       $unwind$mdlOutputs         0000000180058bfc     flightControlSystem_sfun_registry.obj
 0002:00001c04       $unwind$mdl_update_processing 0000000180058c04     flightControlSystem_sfun_registry.obj
 0002:00001c0c       $unwind$mdlUpdate          0000000180058c0c     flightControlSystem_sfun_registry.obj
 0002:00001c14       $unwind$ProcessMexSfunctionEveryCall 0000000180058c14     flightControlSystem_sfun_registry.obj
 0002:00001c1c       $unwind$_RegNumInputPortsCB 0000000180058c1c     flightControlSystem_sfun_registry.obj
 0002:00001c24       $unwind$_RegNumOutputPortsCB 0000000180058c24     flightControlSystem_sfun_registry.obj
 0002:00001c2c       $unwind$_CreateSimStruct   0000000180058c2c     flightControlSystem_sfun_registry.obj
 0002:00001c34       $unwind$_ProcessMexSfunctionCmdLineCall 0000000180058c34     flightControlSystem_sfun_registry.obj
 0002:00001c44       $unwind$ReportIndexOutOfBoundsError 0000000180058c44     flightControlSystem_sfun_registry.obj
 0002:00001c54       $unwind$__report_securityfailure 0000000180058c54     MSVCRT:gs_report.obj
 0002:00001c5c       $unwind$__report_securityfailureEx 0000000180058c5c     MSVCRT:gs_report.obj
 0002:00001c64       $unwind$__report_rangecheckfailure 0000000180058c64     MSVCRT:gs_report.obj
 0002:00001c6c       $unwind$__report_gsfailure 0000000180058c6c     MSVCRT:gs_report.obj
 0002:00001c74       $unwind$capture_current_context 0000000180058c74     MSVCRT:gs_report.obj
 0002:00001c80       $unwind$capture_previous_context 0000000180058c80     MSVCRT:gs_report.obj
 0002:00001c8c       $unwind$__raise_securityfailure 0000000180058c8c     MSVCRT:gs_report.obj
 0002:00001c94       $unwind$__GSHandlerCheckCommon 0000000180058c94     MSVCRT:_gshandler_.obj
 0002:00001c9c       $unwind$__GSHandlerCheck   0000000180058c9c     MSVCRT:_gshandler_.obj
 0002:00001ca8       $xdatasym                  0000000180058ca8     MSVCRT:_amdsecgs_.obj
 0002:00001cb0       $xdatasym                  0000000180058cb0     MSVCRT:_chkstk_.obj
 0002:00001cb8       $unwind$?dllmain_crt_process_attach@@YAHQEAUHINSTANCE__@@QEAX@Z 0000000180058cb8     MSVCRT:dll_dllmain.obj
 0002:00001cf4       $unwind$?fin$0@?0??dllmain_crt_process_attach@@YAHQEAUHINSTANCE__@@QEAX@Z@4HA 0000000180058cf4     MSVCRT:dll_dllmain.obj
 0002:00001cfc       $unwind$?dllmain_crt_process_detach@@YAH_N@Z 0000000180058cfc     MSVCRT:dll_dllmain.obj
 0002:00001d30       $unwind$?fin$0@?0??dllmain_crt_process_detach@@YAH_N@Z@4HA 0000000180058d30     MSVCRT:dll_dllmain.obj
 0002:00001d38       $unwind$?dllmain_crt_dispatch@@YAHQEAUHINSTANCE__@@KQEAX@Z 0000000180058d38     MSVCRT:dll_dllmain.obj
 0002:00001d40       $unwind$?dllmain_dispatch@@YAHQEAUHINSTANCE__@@KQEAX@Z 0000000180058d40     MSVCRT:dll_dllmain.obj
 0002:00001d68       $unwind$?filt$0@?0??dllmain_dispatch@@YAHQEAUHINSTANCE__@@KQEAX@Z@4HA 0000000180058d68     MSVCRT:dll_dllmain.obj
 0002:00001d70       $unwind$_DllMainCRTStartup 0000000180058d70     MSVCRT:dll_dllmain.obj
 0002:00001d80       $unwind$__security_init_cookie 0000000180058d80     MSVCRT:gs_support.obj
 0002:00001d8c       $unwind$__get_entropy      0000000180058d8c     MSVCRT:gs_support.obj
 0002:00001d94       $unwind$DllMain            0000000180058d94     MSVCRT:dll_dllmain_stub.obj
 0002:00001d9c       $unwind$__scrt_initialize_default_local_stdio_options 0000000180058d9c     MSVCRT:default_local_stdio_options.obj
 0002:00001da4       $unwind$atexit             0000000180058da4     MSVCRT:utility.obj
 0002:00001dac       $unwind$_onexit            0000000180058dac     MSVCRT:utility.obj
 0002:00001db4       $unwind$__scrt_is_nonwritable_in_current_image 0000000180058db4     MSVCRT:utility.obj
 0002:00001dd4       $unwind$__scrt_is_nonwritable_in_current_image$filt$0 0000000180058dd4     MSVCRT:utility.obj
 0002:00001ddc       $unwind$__scrt_acquire_startup_lock 0000000180058ddc     MSVCRT:utility.obj
 0002:00001de4       $unwind$__scrt_release_startup_lock 0000000180058de4     MSVCRT:utility.obj
 0002:00001dec       $unwind$__scrt_initialize_crt 0000000180058dec     MSVCRT:utility.obj
 0002:00001df4       $unwind$__scrt_uninitialize_crt 0000000180058df4     MSVCRT:utility.obj
 0002:00001dfc       $unwind$__scrt_initialize_onexit_tables 0000000180058dfc     MSVCRT:utility.obj
 0002:00001e08       $unwind$__scrt_dllmain_exception_filter 0000000180058e08     MSVCRT:utility.obj
 0002:00001e1c       $unwind$__scrt_dllmain_before_initialize_c 0000000180058e1c     MSVCRT:utility.obj
 0002:00001e24       $unwind$__scrt_dllmain_after_initialize_c 0000000180058e24     MSVCRT:utility.obj
 0002:00001e2c       $unwind$__scrt_dllmain_uninitialize_c 0000000180058e2c     MSVCRT:utility.obj
 0002:00001e34       $unwind$__scrt_dllmain_uninitialize_critical 0000000180058e34     MSVCRT:utility.obj
 0002:00001e3c       $unwind$__scrt_dllmain_crt_thread_attach 0000000180058e3c     MSVCRT:utility.obj
 0002:00001e44       $unwind$__scrt_dllmain_crt_thread_detach 0000000180058e44     MSVCRT:utility.obj
 0002:00001e4c       $unwind$?configure_argv@__scrt_narrow_argv_policy@@SAHXZ 0000000180058e4c     MSVCRT:utility.obj
 0002:00001e54       $unwind$__scrt_get_show_window_mode 0000000180058e54     MSVCRT:utility_desktop.obj
 0002:00001e5c       $unwind$__scrt_is_managed_app 0000000180058e5c     MSVCRT:utility_desktop.obj
 0002:00001e64       $unwind$__scrt_fastfail    0000000180058e64     MSVCRT:utility_desktop.obj
 0002:00001e74       $unwind$__scrt_unhandled_exception_filter 0000000180058e74     MSVCRT:utility_desktop.obj
 0002:00001e7c       $unwind$_RTC_Initialize    0000000180058e7c     MSVCRT:_initsect_.obj
 0002:00001e88       $unwind$_RTC_Terminate     0000000180058e88     MSVCRT:_initsect_.obj
 0002:00001e94       $unwind$__isa_available_init 0000000180058e94     MSVCRT:_cpu_disp_.obj
 0002:00001ea8       $xdatasym                  0000000180058ea8     MSVCRT:_guard_dispatch_.obj
 0002:00001eb0       .edata                     0000000180058eb0     flightControlSystem_sfun.exp
 0002:00001ed8       rgpv                       0000000180058ed8     flightControlSystem_sfun.exp
 0002:00001ee0       rgszName                   0000000180058ee0     flightControlSystem_sfun.exp
 0002:00001ee8       rgwOrd                     0000000180058ee8     flightControlSystem_sfun.exp
 0002:00001eec       szName                     0000000180058eec     flightControlSystem_sfun.exp
 0002:00001f0c       $N00001                    0000000180058f0c     flightControlSystem_sfun.exp
 0002:00001f18       $N00002                    0000000180058f18     flightControlSystem_sfun.exp
 0002:00002850       .idata$6                   0000000180059850     libmwbwlookup_tbb:libmwbwlookup_tbb.dll
 0002:00002886       .idata$6                   0000000180059886     libmwcannythresholding_tbb:libmwcannythresholding_tbb.dll
 0002:000028ca       .idata$6                   00000001800598ca     libmwgrayto8:libmwgrayto8.dll
 0002:000028f0       .idata$6                   00000001800598f0     libmwippfilter:libmwippfilter.dll
 0002:00002912       .idata$6                   0000000180059912     libmwgetnumcores:libmwgetnumcores.dll
 0002:0000293a       .idata$6                   000000018005993a     libmwimfilter:libmwimfilter.dll
 0002:00002964       .idata$6                   0000000180059964     libmwimregionalmax:libmwimregionalmax.dll
 0002:0000298e       .idata$6                   000000018005998e     libmwordfilt2:libmwordfilt2.dll
 0002:000029d0       .idata$6                   00000001800599d0     libmwippreconstruct:libmwippreconstruct.dll
 0002:0000327e       .idata$6                   000000018005a27e     sf_runtime:sf_runtime.dll
 0002:00003428       .idata$6                   000000018005a428     libmx:libmx.dll
 0002:000034bc       .idata$6                   000000018005a4bc     libmex:libmex.dll
 0002:000034de       .idata$6                   000000018005a4de     libut:libut.dll
 0002:000036ba       .idata$6                   000000018005a6ba     libmwmathutil:libmwmathutil.dll
 0002:00003752       .idata$6                   000000018005a752     libemlrt:libemlrt.dll
 0002:000038f8       .idata$6                   000000018005a8f8     libcovrt:libcovrt.dll
 0002:00003a92       .idata$6                   000000018005aa92     kernel32:KERNEL32.dll
 0002:00003aec       .idata$6                   000000018005aaec     vcruntime:VCRUNTIME140.dll
 0002:00003c40       .idata$6                   000000018005ac40     ucrt:api-ms-win-crt-string-l1-1-0.dll
 0002:00003c62       .idata$6                   000000018005ac62     ucrt:api-ms-win-crt-math-l1-1-0.dll
 0002:00003c82       .idata$6                   000000018005ac82     ucrt:api-ms-win-crt-stdio-l1-1-0.dll
 0002:00003ca2       .idata$6                   000000018005aca2     ucrt:api-ms-win-crt-heap-l1-1-0.dll
 0002:00003cc2       .idata$6                   000000018005acc2     ucrt:api-ms-win-crt-runtime-l1-1-0.dll
 0003:00000000       $SG26248                   000000018005b000     flightControlSystem_sfun.obj
 0003:00000018       $SG26253                   000000018005b018     flightControlSystem_sfun.obj
 0003:00000020       $SG26256                   000000018005b020     flightControlSystem_sfun.obj
 0003:00000028       $SG26261                   000000018005b028     flightControlSystem_sfun.obj
 0003:00000030       $SG26291                   000000018005b030     flightControlSystem_sfun.obj
 0003:00000050       $SG26294                   000000018005b050     flightControlSystem_sfun.obj
 0003:00000068       $SG26323                   000000018005b068     flightControlSystem_sfun.obj
 0003:00000088       $SG26326                   000000018005b088     flightControlSystem_sfun.obj
 0003:000000a0       $SG26355                   000000018005b0a0     flightControlSystem_sfun.obj
 0003:000000b8       $SG26358                   000000018005b0b8     flightControlSystem_sfun.obj
 0003:000000d0       $SG26388                   000000018005b0d0     flightControlSystem_sfun.obj
 0003:000000e8       $SG26391                   000000018005b0e8     flightControlSystem_sfun.obj
 0003:00000100       $SG26420                   000000018005b100     flightControlSystem_sfun.obj
 0003:00000120       $SG26423                   000000018005b120     flightControlSystem_sfun.obj
 0003:00000138       $SG26429                   000000018005b138     flightControlSystem_sfun.obj
 0003:00000140       $SG26430                   000000018005b140     flightControlSystem_sfun.obj
 0003:00000158       $SG26455                   000000018005b158     flightControlSystem_sfun.obj
 0003:00000170       $SG26456                   000000018005b170     flightControlSystem_sfun.obj
 0003:00000190       $SG26192                   000000018005b190     c2_flightControlSystem.obj
 0003:00000194       $SG26193                   000000018005b194     c2_flightControlSystem.obj
 0003:00000198       $SG26194                   000000018005b198     c2_flightControlSystem.obj
 0003:0000019c       $SG26196                   000000018005b19c     c2_flightControlSystem.obj
 0003:000001a0       $SG26195                   000000018005b1a0     c2_flightControlSystem.obj
 0003:000001a8       $SG26197                   000000018005b1a8     c2_flightControlSystem.obj
 0003:000001b0       $SG26198                   000000018005b1b0     c2_flightControlSystem.obj
 0003:000001b4       $SG26199                   000000018005b1b4     c2_flightControlSystem.obj
 0003:000001b8       $SG26200                   000000018005b1b8     c2_flightControlSystem.obj
 0003:000001c0       $SG26201                   000000018005b1c0     c2_flightControlSystem.obj
 0003:000001c8       $SG26202                   000000018005b1c8     c2_flightControlSystem.obj
 0003:000001cc       $SG26203                   000000018005b1cc     c2_flightControlSystem.obj
 0003:000001d0       $SG26204                   000000018005b1d0     c2_flightControlSystem.obj
 0003:000001d4       $SG26205                   000000018005b1d4     c2_flightControlSystem.obj
 0003:000001dc       $SG26207                   000000018005b1dc     c2_flightControlSystem.obj
 0003:000001e0       $SG26206                   000000018005b1e0     c2_flightControlSystem.obj
 0003:000001e8       $SG26208                   000000018005b1e8     c2_flightControlSystem.obj
 0003:000001f0       $SG26209                   000000018005b1f0     c2_flightControlSystem.obj
 0003:000001f8       $SG26210                   000000018005b1f8     c2_flightControlSystem.obj
 0003:000001fc       $SG26211                   000000018005b1fc     c2_flightControlSystem.obj
 0003:00000204       $SG26212                   000000018005b204     c2_flightControlSystem.obj
 0003:0000020c       $SG26380                   000000018005b20c     c2_flightControlSystem.obj
 0003:00000214       $SG26617                   000000018005b214     c2_flightControlSystem.obj
 0003:00000218       $SG26213                   000000018005b218     c2_flightControlSystem.obj
 0003:00000224       $SG26371                   000000018005b224     c2_flightControlSystem.obj
 0003:0000022c       $SG26383                   000000018005b22c     c2_flightControlSystem.obj
 0003:00000234       $SG26788                   000000018005b234     c2_flightControlSystem.obj
 0003:00000238       $SG26215                   000000018005b238     c2_flightControlSystem.obj
 0003:00000260       $SG26216                   000000018005b260     c2_flightControlSystem.obj
 0003:0000027c       $SG26386                   000000018005b27c     c2_flightControlSystem.obj
 0003:00000284       $SG26791                   000000018005b284     c2_flightControlSystem.obj
 0003:00000288       $SG26218                   000000018005b288     c2_flightControlSystem.obj
 0003:000002b0       $SG26219                   000000018005b2b0     c2_flightControlSystem.obj
 0003:000002cc       $SG26389                   000000018005b2cc     c2_flightControlSystem.obj
 0003:000002d4       $SG26818                   000000018005b2d4     c2_flightControlSystem.obj
 0003:000002d8       $SG26221                   000000018005b2d8     c2_flightControlSystem.obj
 0003:00000300       $SG26222                   000000018005b300     c2_flightControlSystem.obj
 0003:0000031c       $SG26392                   000000018005b31c     c2_flightControlSystem.obj
 0003:00000324       $SG29526                   000000018005b324     c2_flightControlSystem.obj
 0003:00000328       $SG26224                   000000018005b328     c2_flightControlSystem.obj
 0003:00000350       $SG26225                   000000018005b350     c2_flightControlSystem.obj
 0003:0000036c       $SG26395                   000000018005b36c     c2_flightControlSystem.obj
 0003:00000374       $SG29590                   000000018005b374     c2_flightControlSystem.obj
 0003:00000378       $SG26227                   000000018005b378     c2_flightControlSystem.obj
 0003:000003a0       $SG26228                   000000018005b3a0     c2_flightControlSystem.obj
 0003:000003bc       $SG26398                   000000018005b3bc     c2_flightControlSystem.obj
 0003:000003c8       $SG26230                   000000018005b3c8     c2_flightControlSystem.obj
 0003:000003f0       $SG26231                   000000018005b3f0     c2_flightControlSystem.obj
 0003:0000040c       $SG26233                   000000018005b40c     c2_flightControlSystem.obj
 0003:00000414       $SG26236                   000000018005b414     c2_flightControlSystem.obj
 0003:00000420       $SG26234                   000000018005b420     c2_flightControlSystem.obj
 0003:00000468       $SG26239                   000000018005b468     c2_flightControlSystem.obj
 0003:00000470       $SG26237                   000000018005b470     c2_flightControlSystem.obj
 0003:000004b8       $SG26242                   000000018005b4b8     c2_flightControlSystem.obj
 0003:000004c0       $SG26240                   000000018005b4c0     c2_flightControlSystem.obj
 0003:00000504       $SG26245                   000000018005b504     c2_flightControlSystem.obj
 0003:00000510       $SG26243                   000000018005b510     c2_flightControlSystem.obj
 0003:00000558       $SG26248                   000000018005b558     c2_flightControlSystem.obj
 0003:00000570       $SG26246                   000000018005b570     c2_flightControlSystem.obj
 0003:000005b4       $SG26251                   000000018005b5b4     c2_flightControlSystem.obj
 0003:000005c0       $SG26249                   000000018005b5c0     c2_flightControlSystem.obj
 0003:00000614       $SG26254                   000000018005b614     c2_flightControlSystem.obj
 0003:00000620       $SG26252                   000000018005b620     c2_flightControlSystem.obj
 0003:00000664       $SG26257                   000000018005b664     c2_flightControlSystem.obj
 0003:00000670       $SG26255                   000000018005b670     c2_flightControlSystem.obj
 0003:000006b8       $SG26290                   000000018005b6b8     c2_flightControlSystem.obj
 0003:000006c0       $SG26258                   000000018005b6c0     c2_flightControlSystem.obj
 0003:00000708       $SG26260                   000000018005b708     c2_flightControlSystem.obj
 0003:00000714       $SG26299                   000000018005b714     c2_flightControlSystem.obj
 0003:00000720       $SG26261                   000000018005b720     c2_flightControlSystem.obj
 0003:00000768       $SG26263                   000000018005b768     c2_flightControlSystem.obj
 0003:00000778       $SG26308                   000000018005b778     c2_flightControlSystem.obj
 0003:00000780       $SG26264                   000000018005b780     c2_flightControlSystem.obj
 0003:000007c8       $SG26266                   000000018005b7c8     c2_flightControlSystem.obj
 0003:000007d8       $SG26311                   000000018005b7d8     c2_flightControlSystem.obj
 0003:000007e0       $SG26267                   000000018005b7e0     c2_flightControlSystem.obj
 0003:00000828       $SG26269                   000000018005b828     c2_flightControlSystem.obj
 0003:00000838       $SG26314                   000000018005b838     c2_flightControlSystem.obj
 0003:00000840       $SG26270                   000000018005b840     c2_flightControlSystem.obj
 0003:00000888       $SG26272                   000000018005b888     c2_flightControlSystem.obj
 0003:00000898       $SG26317                   000000018005b898     c2_flightControlSystem.obj
 0003:000008a0       $SG26273                   000000018005b8a0     c2_flightControlSystem.obj
 0003:000008e8       $SG26275                   000000018005b8e8     c2_flightControlSystem.obj
 0003:000008f8       $SG26320                   000000018005b8f8     c2_flightControlSystem.obj
 0003:00000900       $SG26276                   000000018005b900     c2_flightControlSystem.obj
 0003:00000948       $SG26278                   000000018005b948     c2_flightControlSystem.obj
 0003:00000958       $SG26323                   000000018005b958     c2_flightControlSystem.obj
 0003:00000960       $SG26279                   000000018005b960     c2_flightControlSystem.obj
 0003:000009a8       $SG26281                   000000018005b9a8     c2_flightControlSystem.obj
 0003:000009b4       $SG26329                   000000018005b9b4     c2_flightControlSystem.obj
 0003:000009c0       $SG26282                   000000018005b9c0     c2_flightControlSystem.obj
 0003:00000a08       $SG26284                   000000018005ba08     c2_flightControlSystem.obj
 0003:00000a18       $SG26341                   000000018005ba18     c2_flightControlSystem.obj
 0003:00000a20       $SG26285                   000000018005ba20     c2_flightControlSystem.obj
 0003:00000a68       $SG26287                   000000018005ba68     c2_flightControlSystem.obj
 0003:00000a74       $SG26350                   000000018005ba74     c2_flightControlSystem.obj
 0003:00000a80       $SG26288                   000000018005ba80     c2_flightControlSystem.obj
 0003:00000ac8       $SG26353                   000000018005bac8     c2_flightControlSystem.obj
 0003:00000ad0       $SG26291                   000000018005bad0     c2_flightControlSystem.obj
 0003:00000b18       $SG26293                   000000018005bb18     c2_flightControlSystem.obj
 0003:00000b24       $SG26356                   000000018005bb24     c2_flightControlSystem.obj
 0003:00000b30       $SG26294                   000000018005bb30     c2_flightControlSystem.obj
 0003:00000b78       $SG26296                   000000018005bb78     c2_flightControlSystem.obj
 0003:00000b84       $SG26359                   000000018005bb84     c2_flightControlSystem.obj
 0003:00000b90       $SG26297                   000000018005bb90     c2_flightControlSystem.obj
 0003:00000bd8       $SG26362                   000000018005bbd8     c2_flightControlSystem.obj
 0003:00000be0       $SG26300                   000000018005bbe0     c2_flightControlSystem.obj
 0003:00000c28       $SG26302                   000000018005bc28     c2_flightControlSystem.obj
 0003:00000c34       $SG26365                   000000018005bc34     c2_flightControlSystem.obj
 0003:00000c40       $SG26303                   000000018005bc40     c2_flightControlSystem.obj
 0003:00000c88       $SG26305                   000000018005bc88     c2_flightControlSystem.obj
 0003:00000c94       $SG26368                   000000018005bc94     c2_flightControlSystem.obj
 0003:00000ca0       $SG26306                   000000018005bca0     c2_flightControlSystem.obj
 0003:00000ce8       $SG26401                   000000018005bce8     c2_flightControlSystem.obj
 0003:00000cf0       $SG26309                   000000018005bcf0     c2_flightControlSystem.obj
 0003:00000d40       $SG26312                   000000018005bd40     c2_flightControlSystem.obj
 0003:00000d90       $SG26315                   000000018005bd90     c2_flightControlSystem.obj
 0003:00000de0       $SG26318                   000000018005bde0     c2_flightControlSystem.obj
 0003:00000e30       $SG26321                   000000018005be30     c2_flightControlSystem.obj
 0003:00000e80       $SG26324                   000000018005be80     c2_flightControlSystem.obj
 0003:00000ed0       $SG26326                   000000018005bed0     c2_flightControlSystem.obj
 0003:00000ee0       $SG26327                   000000018005bee0     c2_flightControlSystem.obj
 0003:00000f28       $SG26404                   000000018005bf28     c2_flightControlSystem.obj
 0003:00000f30       $SG26330                   000000018005bf30     c2_flightControlSystem.obj
 0003:00000f78       $SG26332                   000000018005bf78     c2_flightControlSystem.obj
 0003:00000f88       $SG26374                   000000018005bf88     c2_flightControlSystem.obj
 0003:00000f98       $SG26407                   000000018005bf98     c2_flightControlSystem.obj
 0003:00000fa0       $SG26333                   000000018005bfa0     c2_flightControlSystem.obj
 0003:00000fe8       $SG26335                   000000018005bfe8     c2_flightControlSystem.obj
 0003:00000ff8       $SG26377                   000000018005bff8     c2_flightControlSystem.obj
 0003:00001008       $SG26410                   000000018005c008     c2_flightControlSystem.obj
 0003:00001010       $SG26336                   000000018005c010     c2_flightControlSystem.obj
 0003:00001058       $SG26338                   000000018005c058     c2_flightControlSystem.obj
 0003:00001064       $SG26413                   000000018005c064     c2_flightControlSystem.obj
 0003:00001070       $SG26339                   000000018005c070     c2_flightControlSystem.obj
 0003:000010b8       $SG26416                   000000018005c0b8     c2_flightControlSystem.obj
 0003:000010c0       $SG26342                   000000018005c0c0     c2_flightControlSystem.obj
 0003:00001110       $SG26344                   000000018005c110     c2_flightControlSystem.obj
 0003:00001120       $SG26345                   000000018005c120     c2_flightControlSystem.obj
 0003:00001168       $SG26347                   000000018005c168     c2_flightControlSystem.obj
 0003:00001178       $SG26419                   000000018005c178     c2_flightControlSystem.obj
 0003:00001188       $SG26452                   000000018005c188     c2_flightControlSystem.obj
 0003:00001190       $SG26348                   000000018005c190     c2_flightControlSystem.obj
 0003:000011d8       $SG26467                   000000018005c1d8     c2_flightControlSystem.obj
 0003:000011e0       $SG26351                   000000018005c1e0     c2_flightControlSystem.obj
 0003:00001228       $SG26470                   000000018005c228     c2_flightControlSystem.obj
 0003:00001230       $SG26354                   000000018005c230     c2_flightControlSystem.obj
 0003:00001278       $SG26473                   000000018005c278     c2_flightControlSystem.obj
 0003:00001280       $SG26357                   000000018005c280     c2_flightControlSystem.obj
 0003:000012c8       $SG26476                   000000018005c2c8     c2_flightControlSystem.obj
 0003:000012d0       $SG26360                   000000018005c2d0     c2_flightControlSystem.obj
 0003:00001318       $SG26479                   000000018005c318     c2_flightControlSystem.obj
 0003:00001320       $SG26363                   000000018005c320     c2_flightControlSystem.obj
 0003:00001368       $SG26482                   000000018005c368     c2_flightControlSystem.obj
 0003:00001370       $SG26366                   000000018005c370     c2_flightControlSystem.obj
 0003:000013b8       $SG26485                   000000018005c3b8     c2_flightControlSystem.obj
 0003:000013c0       $SG26369                   000000018005c3c0     c2_flightControlSystem.obj
 0003:00001408       $SG26488                   000000018005c408     c2_flightControlSystem.obj
 0003:00001410       $SG26372                   000000018005c410     c2_flightControlSystem.obj
 0003:00001458       $SG26491                   000000018005c458     c2_flightControlSystem.obj
 0003:00001460       $SG26375                   000000018005c460     c2_flightControlSystem.obj
 0003:000014b4       $SG26557                   000000018005c4b4     c2_flightControlSystem.obj
 0003:000014c0       $SG26378                   000000018005c4c0     c2_flightControlSystem.obj
 0003:00001514       $SG26560                   000000018005c514     c2_flightControlSystem.obj
 0003:00001520       $SG26381                   000000018005c520     c2_flightControlSystem.obj
 0003:00001568       $SG26422                   000000018005c568     c2_flightControlSystem.obj
 0003:00001578       $SG26494                   000000018005c578     c2_flightControlSystem.obj
 0003:00001580       $SG26384                   000000018005c580     c2_flightControlSystem.obj
 0003:000015c8       $SG26425                   000000018005c5c8     c2_flightControlSystem.obj
 0003:000015d8       $SG26497                   000000018005c5d8     c2_flightControlSystem.obj
 0003:000015e0       $SG26387                   000000018005c5e0     c2_flightControlSystem.obj
 0003:00001628       $SG26428                   000000018005c628     c2_flightControlSystem.obj
 0003:00001638       $SG26500                   000000018005c638     c2_flightControlSystem.obj
 0003:00001640       $SG26390                   000000018005c640     c2_flightControlSystem.obj
 0003:00001688       $SG26431                   000000018005c688     c2_flightControlSystem.obj
 0003:00001698       $SG26503                   000000018005c698     c2_flightControlSystem.obj
 0003:000016a0       $SG26393                   000000018005c6a0     c2_flightControlSystem.obj
 0003:000016e8       $SG26434                   000000018005c6e8     c2_flightControlSystem.obj
 0003:000016f8       $SG26506                   000000018005c6f8     c2_flightControlSystem.obj
 0003:00001700       $SG26396                   000000018005c700     c2_flightControlSystem.obj
 0003:00001748       $SG26437                   000000018005c748     c2_flightControlSystem.obj
 0003:00001758       $SG26509                   000000018005c758     c2_flightControlSystem.obj
 0003:00001760       $SG26399                   000000018005c760     c2_flightControlSystem.obj
 0003:000017a8       $SG26440                   000000018005c7a8     c2_flightControlSystem.obj
 0003:000017b8       $SG26512                   000000018005c7b8     c2_flightControlSystem.obj
 0003:000017c0       $SG26402                   000000018005c7c0     c2_flightControlSystem.obj
 0003:00001808       $SG26443                   000000018005c808     c2_flightControlSystem.obj
 0003:00001818       $SG26515                   000000018005c818     c2_flightControlSystem.obj
 0003:00001820       $SG26405                   000000018005c820     c2_flightControlSystem.obj
 0003:00001868       $SG26446                   000000018005c868     c2_flightControlSystem.obj
 0003:00001878       $SG26518                   000000018005c878     c2_flightControlSystem.obj
 0003:00001880       $SG26408                   000000018005c880     c2_flightControlSystem.obj
 0003:000018c8       $SG26449                   000000018005c8c8     c2_flightControlSystem.obj
 0003:000018d8       $SG26563                   000000018005c8d8     c2_flightControlSystem.obj
 0003:000018e0       $SG26411                   000000018005c8e0     c2_flightControlSystem.obj
 0003:00001928       $SG26455                   000000018005c928     c2_flightControlSystem.obj
 0003:00001938       $SG26566                   000000018005c938     c2_flightControlSystem.obj
 0003:00001940       $SG26414                   000000018005c940     c2_flightControlSystem.obj
 0003:00001988       $SG26458                   000000018005c988     c2_flightControlSystem.obj
 0003:00001998       $SG26599                   000000018005c998     c2_flightControlSystem.obj
 0003:000019a0       $SG26417                   000000018005c9a0     c2_flightControlSystem.obj
 0003:000019e8       $SG26461                   000000018005c9e8     c2_flightControlSystem.obj
 0003:000019f8       $SG26605                   000000018005c9f8     c2_flightControlSystem.obj
 0003:00001a00       $SG26420                   000000018005ca00     c2_flightControlSystem.obj
 0003:00001a50       $SG26423                   000000018005ca50     c2_flightControlSystem.obj
 0003:00001aa0       $SG26426                   000000018005caa0     c2_flightControlSystem.obj
 0003:00001af0       $SG26429                   000000018005caf0     c2_flightControlSystem.obj
 0003:00001b40       $SG26432                   000000018005cb40     c2_flightControlSystem.obj
 0003:00001b90       $SG26435                   000000018005cb90     c2_flightControlSystem.obj
 0003:00001be0       $SG26438                   000000018005cbe0     c2_flightControlSystem.obj
 0003:00001c34       $SG26620                   000000018005cc34     c2_flightControlSystem.obj
 0003:00001c40       $SG26441                   000000018005cc40     c2_flightControlSystem.obj
 0003:00001c94       $SG26662                   000000018005cc94     c2_flightControlSystem.obj
 0003:00001ca0       $SG26444                   000000018005cca0     c2_flightControlSystem.obj
 0003:00001cf4       $SG26713                   000000018005ccf4     c2_flightControlSystem.obj
 0003:00001d00       $SG26447                   000000018005cd00     c2_flightControlSystem.obj
 0003:00001d54       $SG29523                   000000018005cd54     c2_flightControlSystem.obj
 0003:00001d60       $SG26450                   000000018005cd60     c2_flightControlSystem.obj
 0003:00001db4       $SG29524                   000000018005cdb4     c2_flightControlSystem.obj
 0003:00001dc0       $SG26453                   000000018005cdc0     c2_flightControlSystem.obj
 0003:00001e08       $SG26623                   000000018005ce08     c2_flightControlSystem.obj
 0003:00001e10       $SG26456                   000000018005ce10     c2_flightControlSystem.obj
 0003:00001e64       $SG29525                   000000018005ce64     c2_flightControlSystem.obj
 0003:00001e70       $SG26459                   000000018005ce70     c2_flightControlSystem.obj
 0003:00001ec4       $SG29587                   000000018005cec4     c2_flightControlSystem.obj
 0003:00001ed0       $SG26462                   000000018005ced0     c2_flightControlSystem.obj
 0003:00001f20       $SG26464                   000000018005cf20     c2_flightControlSystem.obj
 0003:00001f30       $SG26465                   000000018005cf30     c2_flightControlSystem.obj
 0003:00001f80       $SG26468                   000000018005cf80     c2_flightControlSystem.obj
 0003:00001fd0       $SG26471                   000000018005cfd0     c2_flightControlSystem.obj
 0003:00002020       $SG26474                   000000018005d020     c2_flightControlSystem.obj
 0003:00002070       $SG26477                   000000018005d070     c2_flightControlSystem.obj
 0003:000020c0       $SG26480                   000000018005d0c0     c2_flightControlSystem.obj
 0003:00002110       $SG26483                   000000018005d110     c2_flightControlSystem.obj
 0003:00002160       $SG26486                   000000018005d160     c2_flightControlSystem.obj
 0003:000021a8       $SG26626                   000000018005d1a8     c2_flightControlSystem.obj
 0003:000021b0       $SG26489                   000000018005d1b0     c2_flightControlSystem.obj
 0003:00002200       $SG26492                   000000018005d200     c2_flightControlSystem.obj
 0003:00002250       $SG26495                   000000018005d250     c2_flightControlSystem.obj
 0003:000022a0       $SG26498                   000000018005d2a0     c2_flightControlSystem.obj
 0003:000022f0       $SG26501                   000000018005d2f0     c2_flightControlSystem.obj
 0003:00002340       $SG26504                   000000018005d340     c2_flightControlSystem.obj
 0003:00002390       $SG26507                   000000018005d390     c2_flightControlSystem.obj
 0003:000023e0       $SG26510                   000000018005d3e0     c2_flightControlSystem.obj
 0003:00002430       $SG26513                   000000018005d430     c2_flightControlSystem.obj
 0003:00002480       $SG26516                   000000018005d480     c2_flightControlSystem.obj
 0003:000024d0       $SG26519                   000000018005d4d0     c2_flightControlSystem.obj
 0003:00002520       $SG26521                   000000018005d520     c2_flightControlSystem.obj
 0003:00002530       $SG26522                   000000018005d530     c2_flightControlSystem.obj
 0003:00002580       $SG26524                   000000018005d580     c2_flightControlSystem.obj
 0003:00002590       $SG26525                   000000018005d590     c2_flightControlSystem.obj
 0003:000025e0       $SG26527                   000000018005d5e0     c2_flightControlSystem.obj
 0003:000025f0       $SG26528                   000000018005d5f0     c2_flightControlSystem.obj
 0003:00002640       $SG26530                   000000018005d640     c2_flightControlSystem.obj
 0003:00002650       $SG26531                   000000018005d650     c2_flightControlSystem.obj
 0003:000026a0       $SG26533                   000000018005d6a0     c2_flightControlSystem.obj
 0003:000026b0       $SG26534                   000000018005d6b0     c2_flightControlSystem.obj
 0003:00002700       $SG26536                   000000018005d700     c2_flightControlSystem.obj
 0003:00002710       $SG26537                   000000018005d710     c2_flightControlSystem.obj
 0003:00002760       $SG26539                   000000018005d760     c2_flightControlSystem.obj
 0003:00002770       $SG26540                   000000018005d770     c2_flightControlSystem.obj
 0003:000027c0       $SG26542                   000000018005d7c0     c2_flightControlSystem.obj
 0003:000027d0       $SG26543                   000000018005d7d0     c2_flightControlSystem.obj
 0003:00002820       $SG26545                   000000018005d820     c2_flightControlSystem.obj
 0003:00002830       $SG26546                   000000018005d830     c2_flightControlSystem.obj
 0003:00002880       $SG26548                   000000018005d880     c2_flightControlSystem.obj
 0003:00002890       $SG26549                   000000018005d890     c2_flightControlSystem.obj
 0003:000028e0       $SG26551                   000000018005d8e0     c2_flightControlSystem.obj
 0003:000028f0       $SG26552                   000000018005d8f0     c2_flightControlSystem.obj
 0003:00002940       $SG26554                   000000018005d940     c2_flightControlSystem.obj
 0003:00002950       $SG26555                   000000018005d950     c2_flightControlSystem.obj
 0003:00002998       $SG26629                   000000018005d998     c2_flightControlSystem.obj
 0003:000029a0       $SG26558                   000000018005d9a0     c2_flightControlSystem.obj
 0003:000029e8       $SG26647                   000000018005d9e8     c2_flightControlSystem.obj
 0003:000029f8       $SG26740                   000000018005d9f8     c2_flightControlSystem.obj
 0003:00002a00       $SG26561                   000000018005da00     c2_flightControlSystem.obj
 0003:00002a48       $SG26650                   000000018005da48     c2_flightControlSystem.obj
 0003:00002a58       $SG26746                   000000018005da58     c2_flightControlSystem.obj
 0003:00002a60       $SG26564                   000000018005da60     c2_flightControlSystem.obj
 0003:00002aa8       $SG26758                   000000018005daa8     c2_flightControlSystem.obj
 0003:00002ab0       $SG26567                   000000018005dab0     c2_flightControlSystem.obj
 0003:00002af8       $SG26569                   000000018005daf8     c2_flightControlSystem.obj
 0003:00002b04       $SG29588                   000000018005db04     c2_flightControlSystem.obj
 0003:00002b10       $SG26570                   000000018005db10     c2_flightControlSystem.obj
 0003:00002b60       $SG26572                   000000018005db60     c2_flightControlSystem.obj
 0003:00002b70       $SG26573                   000000018005db70     c2_flightControlSystem.obj
 0003:00002bc0       $SG26575                   000000018005dbc0     c2_flightControlSystem.obj
 0003:00002bd0       $SG26576                   000000018005dbd0     c2_flightControlSystem.obj
 0003:00002c20       $SG26578                   000000018005dc20     c2_flightControlSystem.obj
 0003:00002c30       $SG26579                   000000018005dc30     c2_flightControlSystem.obj
 0003:00002c80       $SG26581                   000000018005dc80     c2_flightControlSystem.obj
 0003:00002c90       $SG26582                   000000018005dc90     c2_flightControlSystem.obj
 0003:00002ce0       $SG26584                   000000018005dce0     c2_flightControlSystem.obj
 0003:00002cf0       $SG26585                   000000018005dcf0     c2_flightControlSystem.obj
 0003:00002d40       $SG26587                   000000018005dd40     c2_flightControlSystem.obj
 0003:00002d50       $SG26588                   000000018005dd50     c2_flightControlSystem.obj
 0003:00002da0       $SG26590                   000000018005dda0     c2_flightControlSystem.obj
 0003:00002db0       $SG26591                   000000018005ddb0     c2_flightControlSystem.obj
 0003:00002e00       $SG26593                   000000018005de00     c2_flightControlSystem.obj
 0003:00002e10       $SG26594                   000000018005de10     c2_flightControlSystem.obj
 0003:00002e60       $SG26596                   000000018005de60     c2_flightControlSystem.obj
 0003:00002e70       $SG26597                   000000018005de70     c2_flightControlSystem.obj
 0003:00002ec0       $SG26600                   000000018005dec0     c2_flightControlSystem.obj
 0003:00002f08       $SG26602                   000000018005df08     c2_flightControlSystem.obj
 0003:00002f14       $SG29589                   000000018005df14     c2_flightControlSystem.obj
 0003:00002f20       $SG26603                   000000018005df20     c2_flightControlSystem.obj
 0003:00002f70       $SG26606                   000000018005df70     c2_flightControlSystem.obj
 0003:00002fb8       $SG26608                   000000018005dfb8     c2_flightControlSystem.obj
 0003:00002fd0       $SG26609                   000000018005dfd0     c2_flightControlSystem.obj
 0003:00003020       $SG26611                   000000018005e020     c2_flightControlSystem.obj
 0003:00003030       $SG26612                   000000018005e030     c2_flightControlSystem.obj
 0003:00003080       $SG26614                   000000018005e080     c2_flightControlSystem.obj
 0003:00003090       $SG26615                   000000018005e090     c2_flightControlSystem.obj
 0003:000030e0       $SG26618                   000000018005e0e0     c2_flightControlSystem.obj
 0003:00003128       $SG26764                   000000018005e128     c2_flightControlSystem.obj
 0003:00003130       $SG26621                   000000018005e130     c2_flightControlSystem.obj
 0003:00003180       $SG26624                   000000018005e180     c2_flightControlSystem.obj
 0003:000031d0       $SG26627                   000000018005e1d0     c2_flightControlSystem.obj
 0003:00003220       $SG26630                   000000018005e220     c2_flightControlSystem.obj
 0003:00003270       $SG26632                   000000018005e270     c2_flightControlSystem.obj
 0003:00003280       $SG26633                   000000018005e280     c2_flightControlSystem.obj
 0003:000032d0       $SG26635                   000000018005e2d0     c2_flightControlSystem.obj
 0003:000032e0       $SG26636                   000000018005e2e0     c2_flightControlSystem.obj
 0003:00003330       $SG26638                   000000018005e330     c2_flightControlSystem.obj
 0003:00003340       $SG26639                   000000018005e340     c2_flightControlSystem.obj
 0003:00003390       $SG26641                   000000018005e390     c2_flightControlSystem.obj
 0003:000033a0       $SG26642                   000000018005e3a0     c2_flightControlSystem.obj
 0003:000033f0       $SG26644                   000000018005e3f0     c2_flightControlSystem.obj
 0003:00003400       $SG26645                   000000018005e400     c2_flightControlSystem.obj
 0003:00003450       $SG26648                   000000018005e450     c2_flightControlSystem.obj
 0003:000034a8       $SG26767                   000000018005e4a8     c2_flightControlSystem.obj
 0003:000034b0       $SG26651                   000000018005e4b0     c2_flightControlSystem.obj
 0003:00003508       $SG26653                   000000018005e508     c2_flightControlSystem.obj
 0003:00003518       $SG26716                   000000018005e518     c2_flightControlSystem.obj
 0003:00003528       $SG26773                   000000018005e528     c2_flightControlSystem.obj
 0003:00003530       $SG26654                   000000018005e530     c2_flightControlSystem.obj
 0003:00003580       $SG26656                   000000018005e580     c2_flightControlSystem.obj
 0003:00003590       $SG26657                   000000018005e590     c2_flightControlSystem.obj
 0003:000035e0       $SG26659                   000000018005e5e0     c2_flightControlSystem.obj
 0003:000035f0       $SG26660                   000000018005e5f0     c2_flightControlSystem.obj
 0003:00003640       $SG26663                   000000018005e640     c2_flightControlSystem.obj
 0003:00003688       $SG26665                   000000018005e688     c2_flightControlSystem.obj
 0003:00003698       $SG26719                   000000018005e698     c2_flightControlSystem.obj
 0003:000036a8       $SG26776                   000000018005e6a8     c2_flightControlSystem.obj
 0003:000036b0       $SG26666                   000000018005e6b0     c2_flightControlSystem.obj
 0003:00003700       $SG26668                   000000018005e700     c2_flightControlSystem.obj
 0003:00003710       $SG26669                   000000018005e710     c2_flightControlSystem.obj
 0003:00003760       $SG26671                   000000018005e760     c2_flightControlSystem.obj
 0003:00003770       $SG26672                   000000018005e770     c2_flightControlSystem.obj
 0003:000037c0       $SG26674                   000000018005e7c0     c2_flightControlSystem.obj
 0003:000037d0       $SG26675                   000000018005e7d0     c2_flightControlSystem.obj
 0003:00003820       $SG26677                   000000018005e820     c2_flightControlSystem.obj
 0003:00003830       $SG26678                   000000018005e830     c2_flightControlSystem.obj
 0003:00003880       $SG26680                   000000018005e880     c2_flightControlSystem.obj
 0003:00003890       $SG26681                   000000018005e890     c2_flightControlSystem.obj
 0003:000038e0       $SG26683                   000000018005e8e0     c2_flightControlSystem.obj
 0003:000038f0       $SG26684                   000000018005e8f0     c2_flightControlSystem.obj
 0003:00003938       $SG26686                   000000018005e938     c2_flightControlSystem.obj
 0003:00003948       $SG26722                   000000018005e948     c2_flightControlSystem.obj
 0003:00003958       $SG26779                   000000018005e958     c2_flightControlSystem.obj
 0003:00003960       $SG26687                   000000018005e960     c2_flightControlSystem.obj
 0003:000039a8       $SG26689                   000000018005e9a8     c2_flightControlSystem.obj
 0003:000039b8       $SG26725                   000000018005e9b8     c2_flightControlSystem.obj
 0003:000039c8       $SG26782                   000000018005e9c8     c2_flightControlSystem.obj
 0003:000039d0       $SG26690                   000000018005e9d0     c2_flightControlSystem.obj
 0003:00003a18       $SG26692                   000000018005ea18     c2_flightControlSystem.obj
 0003:00003a28       $SG26728                   000000018005ea28     c2_flightControlSystem.obj
 0003:00003a38       $SG26830                   000000018005ea38     c2_flightControlSystem.obj
 0003:00003a50       $SG26693                   000000018005ea50     c2_flightControlSystem.obj
 0003:00003a98       $SG26695                   000000018005ea98     c2_flightControlSystem.obj
 0003:00003aa8       $SG26731                   000000018005eaa8     c2_flightControlSystem.obj
 0003:00003ab8       $SG26857                   000000018005eab8     c2_flightControlSystem.obj
 0003:00003ad0       $SG26696                   000000018005ead0     c2_flightControlSystem.obj
 0003:00003b18       $SG26698                   000000018005eb18     c2_flightControlSystem.obj
 0003:00003b28       $SG26734                   000000018005eb28     c2_flightControlSystem.obj
 0003:00003b38       $SG26860                   000000018005eb38     c2_flightControlSystem.obj
 0003:00003b50       $SG26699                   000000018005eb50     c2_flightControlSystem.obj
 0003:00003b98       $SG26701                   000000018005eb98     c2_flightControlSystem.obj
 0003:00003ba8       $SG26737                   000000018005eba8     c2_flightControlSystem.obj
 0003:00003bb8       $SG26863                   000000018005ebb8     c2_flightControlSystem.obj
 0003:00003bd0       $SG26702                   000000018005ebd0     c2_flightControlSystem.obj
 0003:00003c18       $SG26704                   000000018005ec18     c2_flightControlSystem.obj
 0003:00003c28       $SG26743                   000000018005ec28     c2_flightControlSystem.obj
 0003:00003c38       $SG26869                   000000018005ec38     c2_flightControlSystem.obj
 0003:00003c50       $SG26705                   000000018005ec50     c2_flightControlSystem.obj
 0003:00003c98       $SG26707                   000000018005ec98     c2_flightControlSystem.obj
 0003:00003ca8       $SG26749                   000000018005eca8     c2_flightControlSystem.obj
 0003:00003cb8       $SG26956                   000000018005ecb8     c2_flightControlSystem.obj
 0003:00003cc8       $SG26971                   000000018005ecc8     c2_flightControlSystem.obj
 0003:00003cd0       $SG26708                   000000018005ecd0     c2_flightControlSystem.obj
 0003:00003d18       $SG26710                   000000018005ed18     c2_flightControlSystem.obj
 0003:00003d28       $SG26752                   000000018005ed28     c2_flightControlSystem.obj
 0003:00003d38       $SG26959                   000000018005ed38     c2_flightControlSystem.obj
 0003:00003d48       $SG26974                   000000018005ed48     c2_flightControlSystem.obj
 0003:00003d50       $SG26711                   000000018005ed50     c2_flightControlSystem.obj
 0003:00003d98       $SG26977                   000000018005ed98     c2_flightControlSystem.obj
 0003:00003da0       $SG26714                   000000018005eda0     c2_flightControlSystem.obj
 0003:00003de8       $SG26980                   000000018005ede8     c2_flightControlSystem.obj
 0003:00003df0       $SG26717                   000000018005edf0     c2_flightControlSystem.obj
 0003:00003e40       $SG26720                   000000018005ee40     c2_flightControlSystem.obj
 0003:00003e90       $SG26723                   000000018005ee90     c2_flightControlSystem.obj
 0003:00003ee0       $SG26726                   000000018005eee0     c2_flightControlSystem.obj
 0003:00003f30       $SG26729                   000000018005ef30     c2_flightControlSystem.obj
 0003:00003f80       $SG26732                   000000018005ef80     c2_flightControlSystem.obj
 0003:00003fd0       $SG26735                   000000018005efd0     c2_flightControlSystem.obj
 0003:00004020       $SG26738                   000000018005f020     c2_flightControlSystem.obj
 0003:00004070       $SG26741                   000000018005f070     c2_flightControlSystem.obj
 0003:000040c0       $SG26744                   000000018005f0c0     c2_flightControlSystem.obj
 0003:00004110       $SG26747                   000000018005f110     c2_flightControlSystem.obj
 0003:00004160       $SG26750                   000000018005f160     c2_flightControlSystem.obj
 0003:000041b0       $SG26753                   000000018005f1b0     c2_flightControlSystem.obj
 0003:00004200       $SG26755                   000000018005f200     c2_flightControlSystem.obj
 0003:00004210       $SG26756                   000000018005f210     c2_flightControlSystem.obj
 0003:00004260       $SG26759                   000000018005f260     c2_flightControlSystem.obj
 0003:000042b0       $SG26761                   000000018005f2b0     c2_flightControlSystem.obj
 0003:000042c0       $SG26762                   000000018005f2c0     c2_flightControlSystem.obj
 0003:00004310       $SG26765                   000000018005f310     c2_flightControlSystem.obj
 0003:00004360       $SG26768                   000000018005f360     c2_flightControlSystem.obj
 0003:000043b0       $SG26770                   000000018005f3b0     c2_flightControlSystem.obj
 0003:000043c0       $SG26771                   000000018005f3c0     c2_flightControlSystem.obj
 0003:00004410       $SG26774                   000000018005f410     c2_flightControlSystem.obj
 0003:00004460       $SG26777                   000000018005f460     c2_flightControlSystem.obj
 0003:000044b0       $SG26780                   000000018005f4b0     c2_flightControlSystem.obj
 0003:00004500       $SG26783                   000000018005f500     c2_flightControlSystem.obj
 0003:00004550       $SG26785                   000000018005f550     c2_flightControlSystem.obj
 0003:00004560       $SG26786                   000000018005f560     c2_flightControlSystem.obj
 0003:000045b0       $SG26789                   000000018005f5b0     c2_flightControlSystem.obj
 0003:00004600       $SG26792                   000000018005f600     c2_flightControlSystem.obj
 0003:00004650       $SG26794                   000000018005f650     c2_flightControlSystem.obj
 0003:00004660       $SG26795                   000000018005f660     c2_flightControlSystem.obj
 0003:000046b0       $SG26797                   000000018005f6b0     c2_flightControlSystem.obj
 0003:000046c0       $SG26798                   000000018005f6c0     c2_flightControlSystem.obj
 0003:00004710       $SG26800                   000000018005f710     c2_flightControlSystem.obj
 0003:00004720       $SG26801                   000000018005f720     c2_flightControlSystem.obj
 0003:00004770       $SG26803                   000000018005f770     c2_flightControlSystem.obj
 0003:00004780       $SG26804                   000000018005f780     c2_flightControlSystem.obj
 0003:000047d0       $SG26806                   000000018005f7d0     c2_flightControlSystem.obj
 0003:000047e0       $SG26807                   000000018005f7e0     c2_flightControlSystem.obj
 0003:00004830       $SG26809                   000000018005f830     c2_flightControlSystem.obj
 0003:00004840       $SG26810                   000000018005f840     c2_flightControlSystem.obj
 0003:00004890       $SG26812                   000000018005f890     c2_flightControlSystem.obj
 0003:000048a0       $SG26813                   000000018005f8a0     c2_flightControlSystem.obj
 0003:000048f0       $SG26815                   000000018005f8f0     c2_flightControlSystem.obj
 0003:00004900       $SG26816                   000000018005f900     c2_flightControlSystem.obj
 0003:00004950       $SG26819                   000000018005f950     c2_flightControlSystem.obj
 0003:000049a0       $SG26821                   000000018005f9a0     c2_flightControlSystem.obj
 0003:000049b0       $SG26822                   000000018005f9b0     c2_flightControlSystem.obj
 0003:00004a00       $SG26824                   000000018005fa00     c2_flightControlSystem.obj
 0003:00004a10       $SG26825                   000000018005fa10     c2_flightControlSystem.obj
 0003:00004a60       $SG26827                   000000018005fa60     c2_flightControlSystem.obj
 0003:00004a70       $SG26828                   000000018005fa70     c2_flightControlSystem.obj
 0003:00004ac0       $SG26831                   000000018005fac0     c2_flightControlSystem.obj
 0003:00004b30       $SG26833                   000000018005fb30     c2_flightControlSystem.obj
 0003:00004b40       $SG26834                   000000018005fb40     c2_flightControlSystem.obj
 0003:00004b90       $SG26836                   000000018005fb90     c2_flightControlSystem.obj
 0003:00004ba0       $SG26837                   000000018005fba0     c2_flightControlSystem.obj
 0003:00004bf0       $SG26839                   000000018005fbf0     c2_flightControlSystem.obj
 0003:00004c00       $SG26840                   000000018005fc00     c2_flightControlSystem.obj
 0003:00004c50       $SG26842                   000000018005fc50     c2_flightControlSystem.obj
 0003:00004c60       $SG26843                   000000018005fc60     c2_flightControlSystem.obj
 0003:00004cb0       $SG26845                   000000018005fcb0     c2_flightControlSystem.obj
 0003:00004cc0       $SG26846                   000000018005fcc0     c2_flightControlSystem.obj
 0003:00004d10       $SG26848                   000000018005fd10     c2_flightControlSystem.obj
 0003:00004d20       $SG26849                   000000018005fd20     c2_flightControlSystem.obj
 0003:00004d70       $SG26851                   000000018005fd70     c2_flightControlSystem.obj
 0003:00004d80       $SG26852                   000000018005fd80     c2_flightControlSystem.obj
 0003:00004dd0       $SG26854                   000000018005fdd0     c2_flightControlSystem.obj
 0003:00004de0       $SG26855                   000000018005fde0     c2_flightControlSystem.obj
 0003:00004e30       $SG26858                   000000018005fe30     c2_flightControlSystem.obj
 0003:00004ea0       $SG26861                   000000018005fea0     c2_flightControlSystem.obj
 0003:00004f10       $SG26864                   000000018005ff10     c2_flightControlSystem.obj
 0003:00004f80       $SG26866                   000000018005ff80     c2_flightControlSystem.obj
 0003:00004f90       $SG26867                   000000018005ff90     c2_flightControlSystem.obj
 0003:00004fe0       $SG26870                   000000018005ffe0     c2_flightControlSystem.obj
 0003:00005040       $SG26872                   0000000180060040     c2_flightControlSystem.obj
 0003:00005050       $SG26873                   0000000180060050     c2_flightControlSystem.obj
 0003:000050a0       $SG26875                   00000001800600a0     c2_flightControlSystem.obj
 0003:000050b0       $SG26876                   00000001800600b0     c2_flightControlSystem.obj
 0003:00005100       $SG26878                   0000000180060100     c2_flightControlSystem.obj
 0003:00005110       $SG26879                   0000000180060110     c2_flightControlSystem.obj
 0003:00005160       $SG26881                   0000000180060160     c2_flightControlSystem.obj
 0003:00005170       $SG26882                   0000000180060170     c2_flightControlSystem.obj
 0003:000051c0       $SG26884                   00000001800601c0     c2_flightControlSystem.obj
 0003:000051d0       $SG26885                   00000001800601d0     c2_flightControlSystem.obj
 0003:00005220       $SG26887                   0000000180060220     c2_flightControlSystem.obj
 0003:00005230       $SG26888                   0000000180060230     c2_flightControlSystem.obj
 0003:00005280       $SG26890                   0000000180060280     c2_flightControlSystem.obj
 0003:00005290       $SG26891                   0000000180060290     c2_flightControlSystem.obj
 0003:000052e0       $SG26893                   00000001800602e0     c2_flightControlSystem.obj
 0003:000052f0       $SG26894                   00000001800602f0     c2_flightControlSystem.obj
 0003:00005340       $SG26896                   0000000180060340     c2_flightControlSystem.obj
 0003:00005350       $SG26897                   0000000180060350     c2_flightControlSystem.obj
 0003:000053a0       $SG26899                   00000001800603a0     c2_flightControlSystem.obj
 0003:000053b0       $SG26900                   00000001800603b0     c2_flightControlSystem.obj
 0003:00005400       $SG26902                   0000000180060400     c2_flightControlSystem.obj
 0003:00005410       $SG26903                   0000000180060410     c2_flightControlSystem.obj
 0003:00005460       $SG26905                   0000000180060460     c2_flightControlSystem.obj
 0003:00005470       $SG26906                   0000000180060470     c2_flightControlSystem.obj
 0003:000054c0       $SG26908                   00000001800604c0     c2_flightControlSystem.obj
 0003:000054d0       $SG26909                   00000001800604d0     c2_flightControlSystem.obj
 0003:00005520       $SG26911                   0000000180060520     c2_flightControlSystem.obj
 0003:00005530       $SG26912                   0000000180060530     c2_flightControlSystem.obj
 0003:00005580       $SG26914                   0000000180060580     c2_flightControlSystem.obj
 0003:00005590       $SG26915                   0000000180060590     c2_flightControlSystem.obj
 0003:000055e0       $SG26917                   00000001800605e0     c2_flightControlSystem.obj
 0003:000055f0       $SG26918                   00000001800605f0     c2_flightControlSystem.obj
 0003:00005640       $SG26920                   0000000180060640     c2_flightControlSystem.obj
 0003:00005650       $SG26921                   0000000180060650     c2_flightControlSystem.obj
 0003:000056a0       $SG26923                   00000001800606a0     c2_flightControlSystem.obj
 0003:000056b0       $SG26924                   00000001800606b0     c2_flightControlSystem.obj
 0003:00005700       $SG26926                   0000000180060700     c2_flightControlSystem.obj
 0003:00005710       $SG26927                   0000000180060710     c2_flightControlSystem.obj
 0003:00005760       $SG26929                   0000000180060760     c2_flightControlSystem.obj
 0003:00005770       $SG26930                   0000000180060770     c2_flightControlSystem.obj
 0003:000057c0       $SG26932                   00000001800607c0     c2_flightControlSystem.obj
 0003:000057d0       $SG26933                   00000001800607d0     c2_flightControlSystem.obj
 0003:00005820       $SG26935                   0000000180060820     c2_flightControlSystem.obj
 0003:00005830       $SG26936                   0000000180060830     c2_flightControlSystem.obj
 0003:00005880       $SG26938                   0000000180060880     c2_flightControlSystem.obj
 0003:00005890       $SG26939                   0000000180060890     c2_flightControlSystem.obj
 0003:000058e0       $SG26941                   00000001800608e0     c2_flightControlSystem.obj
 0003:000058f0       $SG26942                   00000001800608f0     c2_flightControlSystem.obj
 0003:00005940       $SG26944                   0000000180060940     c2_flightControlSystem.obj
 0003:00005950       $SG26945                   0000000180060950     c2_flightControlSystem.obj
 0003:000059a0       $SG26947                   00000001800609a0     c2_flightControlSystem.obj
 0003:000059b0       $SG26948                   00000001800609b0     c2_flightControlSystem.obj
 0003:00005a00       $SG26950                   0000000180060a00     c2_flightControlSystem.obj
 0003:00005a10       $SG26951                   0000000180060a10     c2_flightControlSystem.obj
 0003:00005a60       $SG26953                   0000000180060a60     c2_flightControlSystem.obj
 0003:00005a70       $SG26954                   0000000180060a70     c2_flightControlSystem.obj
 0003:00005ac0       $SG26957                   0000000180060ac0     c2_flightControlSystem.obj
 0003:00005b18       $SG26962                   0000000180060b18     c2_flightControlSystem.obj
 0003:00005b28       $SG26983                   0000000180060b28     c2_flightControlSystem.obj
 0003:00005b30       $SG26960                   0000000180060b30     c2_flightControlSystem.obj
 0003:00005b88       $SG26965                   0000000180060b88     c2_flightControlSystem.obj
 0003:00005b98       $SG26986                   0000000180060b98     c2_flightControlSystem.obj
 0003:00005ba0       $SG26963                   0000000180060ba0     c2_flightControlSystem.obj
 0003:00005bf8       $SG26968                   0000000180060bf8     c2_flightControlSystem.obj
 0003:00005c08       $SG26989                   0000000180060c08     c2_flightControlSystem.obj
 0003:00005c10       $SG26966                   0000000180060c10     c2_flightControlSystem.obj
 0003:00005c68       $SG26992                   0000000180060c68     c2_flightControlSystem.obj
 0003:00005c70       $SG26969                   0000000180060c70     c2_flightControlSystem.obj
 0003:00005cc8       $SG26995                   0000000180060cc8     c2_flightControlSystem.obj
 0003:00005cd0       $SG26972                   0000000180060cd0     c2_flightControlSystem.obj
 0003:00005d20       $SG26975                   0000000180060d20     c2_flightControlSystem.obj
 0003:00005d70       $SG26978                   0000000180060d70     c2_flightControlSystem.obj
 0003:00005dc0       $SG26981                   0000000180060dc0     c2_flightControlSystem.obj
 0003:00005e10       $SG26984                   0000000180060e10     c2_flightControlSystem.obj
 0003:00005e60       $SG26987                   0000000180060e60     c2_flightControlSystem.obj
 0003:00005eb0       $SG26990                   0000000180060eb0     c2_flightControlSystem.obj
 0003:00005f00       $SG26993                   0000000180060f00     c2_flightControlSystem.obj
 0003:00005f50       $SG26996                   0000000180060f50     c2_flightControlSystem.obj
 0003:00005fa0       $SG26998                   0000000180060fa0     c2_flightControlSystem.obj
 0003:00005fa8       $SG27007                   0000000180060fa8     c2_flightControlSystem.obj
 0003:00005fb0       $SG26999                   0000000180060fb0     c2_flightControlSystem.obj
 0003:00006000       $SG27001                   0000000180061000     c2_flightControlSystem.obj
 0003:00006010       $SG27002                   0000000180061010     c2_flightControlSystem.obj
 0003:00006060       $SG27004                   0000000180061060     c2_flightControlSystem.obj
 0003:00006070       $SG27005                   0000000180061070     c2_flightControlSystem.obj
 0003:000060c0       $SG27008                   00000001800610c0     c2_flightControlSystem.obj
 0003:00006110       $SG27010                   0000000180061110     c2_flightControlSystem.obj
 0003:00006120       $SG27011                   0000000180061120     c2_flightControlSystem.obj
 0003:00006170       $SG27013                   0000000180061170     c2_flightControlSystem.obj
 0003:00006180       $SG27014                   0000000180061180     c2_flightControlSystem.obj
 0003:000061d0       $SG27016                   00000001800611d0     c2_flightControlSystem.obj
 0003:000061e0       $SG27017                   00000001800611e0     c2_flightControlSystem.obj
 0003:00006230       c2_debug_family_names      0000000180061230     c2_flightControlSystem.obj
 0003:000062e0       c2_emlrtRTEI               00000001800612e0     c2_flightControlSystem.obj
 0003:000062f8       c2_b_emlrtRTEI             00000001800612f8     c2_flightControlSystem.obj
 0003:00006310       c2_c_emlrtRTEI             0000000180061310     c2_flightControlSystem.obj
 0003:00006328       c2_d_emlrtRTEI             0000000180061328     c2_flightControlSystem.obj
 0003:00006340       c2_e_emlrtRTEI             0000000180061340     c2_flightControlSystem.obj
 0003:00006358       c2_f_emlrtRTEI             0000000180061358     c2_flightControlSystem.obj
 0003:00006370       c2_g_emlrtRTEI             0000000180061370     c2_flightControlSystem.obj
 0003:00006388       c2_l_emlrtRTEI             0000000180061388     c2_flightControlSystem.obj
 0003:000063a0       c2_n_emlrtRTEI             00000001800613a0     c2_flightControlSystem.obj
 0003:000063b8       c2_o_emlrtRTEI             00000001800613b8     c2_flightControlSystem.obj
 0003:000063d0       c2_p_emlrtRTEI             00000001800613d0     c2_flightControlSystem.obj
 0003:000063e8       c2_q_emlrtRTEI             00000001800613e8     c2_flightControlSystem.obj
 0003:00006400       c2_r_emlrtRTEI             0000000180061400     c2_flightControlSystem.obj
 0003:00006418       c2_s_emlrtRTEI             0000000180061418     c2_flightControlSystem.obj
 0003:00006430       c2_y_emlrtRTEI             0000000180061430     c2_flightControlSystem.obj
 0003:00006448       c2_ab_emlrtRTEI            0000000180061448     c2_flightControlSystem.obj
 0003:00006460       c2_bb_emlrtRTEI            0000000180061460     c2_flightControlSystem.obj
 0003:00006478       c2_cb_emlrtRTEI            0000000180061478     c2_flightControlSystem.obj
 0003:00006490       c2_db_emlrtRTEI            0000000180061490     c2_flightControlSystem.obj
 0003:000064a8       c2_eb_emlrtRTEI            00000001800614a8     c2_flightControlSystem.obj
 0003:000064c0       c2_fb_emlrtRTEI            00000001800614c0     c2_flightControlSystem.obj
 0003:000064d8       c2_gb_emlrtRTEI            00000001800614d8     c2_flightControlSystem.obj
 0003:000064f0       c2_hb_emlrtRTEI            00000001800614f0     c2_flightControlSystem.obj
 0003:00006508       c2_ib_emlrtRTEI            0000000180061508     c2_flightControlSystem.obj
 0003:00006520       c2_jb_emlrtRTEI            0000000180061520     c2_flightControlSystem.obj
 0003:00006538       c2_kb_emlrtRTEI            0000000180061538     c2_flightControlSystem.obj
 0003:00006550       c2_lb_emlrtRTEI            0000000180061550     c2_flightControlSystem.obj
 0003:00006568       c2_mb_emlrtRTEI            0000000180061568     c2_flightControlSystem.obj
 0003:00006580       c2_nb_emlrtRTEI            0000000180061580     c2_flightControlSystem.obj
 0003:00006598       c2_ob_emlrtRTEI            0000000180061598     c2_flightControlSystem.obj
 0003:000065b0       c2_pb_emlrtRTEI            00000001800615b0     c2_flightControlSystem.obj
 0003:000065c8       c2_qb_emlrtRTEI            00000001800615c8     c2_flightControlSystem.obj
 0003:000065e0       c2_rb_emlrtRTEI            00000001800615e0     c2_flightControlSystem.obj
 0003:000065f8       c2_ub_emlrtRTEI            00000001800615f8     c2_flightControlSystem.obj
 0003:00006610       c2_vb_emlrtRTEI            0000000180061610     c2_flightControlSystem.obj
 0003:00006628       c2_wb_emlrtRTEI            0000000180061628     c2_flightControlSystem.obj
 0003:00006640       c2_xb_emlrtRTEI            0000000180061640     c2_flightControlSystem.obj
 0003:00006658       c2_yb_emlrtRTEI            0000000180061658     c2_flightControlSystem.obj
 0003:00006670       c2_ac_emlrtRTEI            0000000180061670     c2_flightControlSystem.obj
 0003:00006688       c2_bc_emlrtRTEI            0000000180061688     c2_flightControlSystem.obj
 0003:000066a0       c2_fc_emlrtRTEI            00000001800616a0     c2_flightControlSystem.obj
 0003:000066b8       c2_gc_emlrtRTEI            00000001800616b8     c2_flightControlSystem.obj
 0003:000066d0       c2_hc_emlrtRTEI            00000001800616d0     c2_flightControlSystem.obj
 0003:000066e8       c2_jc_emlrtRTEI            00000001800616e8     c2_flightControlSystem.obj
 0003:00006700       c2_kc_emlrtRTEI            0000000180061700     c2_flightControlSystem.obj
 0003:00006718       c2_lc_emlrtRTEI            0000000180061718     c2_flightControlSystem.obj
 0003:00006730       c2_nc_emlrtRTEI            0000000180061730     c2_flightControlSystem.obj
 0003:00006748       c2_pc_emlrtRTEI            0000000180061748     c2_flightControlSystem.obj
 0003:00006760       c2_sc_emlrtRTEI            0000000180061760     c2_flightControlSystem.obj
 0003:00006778       c2_tc_emlrtRTEI            0000000180061778     c2_flightControlSystem.obj
 0003:00006790       c2_uc_emlrtRTEI            0000000180061790     c2_flightControlSystem.obj
 0003:000067a8       c2_vc_emlrtRTEI            00000001800617a8     c2_flightControlSystem.obj
 0003:000067c0       c2_wc_emlrtRTEI            00000001800617c0     c2_flightControlSystem.obj
 0003:000067d8       c2_xc_emlrtRTEI            00000001800617d8     c2_flightControlSystem.obj
 0003:000067f0       c2_yc_emlrtRTEI            00000001800617f0     c2_flightControlSystem.obj
 0003:00006808       c2_ad_emlrtRTEI            0000000180061808     c2_flightControlSystem.obj
 0003:00006820       c2_bd_emlrtRTEI            0000000180061820     c2_flightControlSystem.obj
 0003:00006838       c2_cd_emlrtRTEI            0000000180061838     c2_flightControlSystem.obj
 0003:00006850       c2_dd_emlrtRTEI            0000000180061850     c2_flightControlSystem.obj
 0003:00006868       c2_ed_emlrtRTEI            0000000180061868     c2_flightControlSystem.obj
 0003:00006880       c2_fd_emlrtRTEI            0000000180061880     c2_flightControlSystem.obj
 0003:00006898       c2_gd_emlrtRTEI            0000000180061898     c2_flightControlSystem.obj
 0003:000068b0       c2_hd_emlrtRTEI            00000001800618b0     c2_flightControlSystem.obj
 0003:000068c8       c2_id_emlrtRTEI            00000001800618c8     c2_flightControlSystem.obj
 0003:000068e0       c2_jd_emlrtRTEI            00000001800618e0     c2_flightControlSystem.obj
 0003:000068f8       c2_kd_emlrtRTEI            00000001800618f8     c2_flightControlSystem.obj
 0003:00006910       c2_ld_emlrtRTEI            0000000180061910     c2_flightControlSystem.obj
 0003:00006928       c2_md_emlrtRTEI            0000000180061928     c2_flightControlSystem.obj
 0003:00006940       c2_nd_emlrtRTEI            0000000180061940     c2_flightControlSystem.obj
 0003:00006958       c2_pd_emlrtRTEI            0000000180061958     c2_flightControlSystem.obj
 0003:00006970       c2_qd_emlrtRTEI            0000000180061970     c2_flightControlSystem.obj
 0003:00006988       c2_rd_emlrtRTEI            0000000180061988     c2_flightControlSystem.obj
 0003:000069a0       c2_sd_emlrtRTEI            00000001800619a0     c2_flightControlSystem.obj
 0003:000069b8       c2_td_emlrtRTEI            00000001800619b8     c2_flightControlSystem.obj
 0003:000069d0       c2_ud_emlrtRTEI            00000001800619d0     c2_flightControlSystem.obj
 0003:000069e8       c2_vd_emlrtRTEI            00000001800619e8     c2_flightControlSystem.obj
 0003:00006a00       c2_wd_emlrtRTEI            0000000180061a00     c2_flightControlSystem.obj
 0003:00006a18       c2_xd_emlrtRTEI            0000000180061a18     c2_flightControlSystem.obj
 0003:00006a30       c2_yd_emlrtRTEI            0000000180061a30     c2_flightControlSystem.obj
 0003:00006a48       c2_ae_emlrtRTEI            0000000180061a48     c2_flightControlSystem.obj
 0003:00006a60       c2_be_emlrtRTEI            0000000180061a60     c2_flightControlSystem.obj
 0003:00006a78       c2_ce_emlrtRTEI            0000000180061a78     c2_flightControlSystem.obj
 0003:00006a90       c2_de_emlrtRTEI            0000000180061a90     c2_flightControlSystem.obj
 0003:00006aa8       c2_ee_emlrtRTEI            0000000180061aa8     c2_flightControlSystem.obj
 0003:00006ac0       c2_fe_emlrtRTEI            0000000180061ac0     c2_flightControlSystem.obj
 0003:00006ad8       c2_ge_emlrtRTEI            0000000180061ad8     c2_flightControlSystem.obj
 0003:00006af0       c2_he_emlrtRTEI            0000000180061af0     c2_flightControlSystem.obj
 0003:00006b08       c2_ie_emlrtRTEI            0000000180061b08     c2_flightControlSystem.obj
 0003:00006b20       c2_je_emlrtRTEI            0000000180061b20     c2_flightControlSystem.obj
 0003:00006b38       c2_ke_emlrtRTEI            0000000180061b38     c2_flightControlSystem.obj
 0003:00006b50       c2_le_emlrtRTEI            0000000180061b50     c2_flightControlSystem.obj
 0003:00006b68       c2_me_emlrtRTEI            0000000180061b68     c2_flightControlSystem.obj
 0003:00006b80       c2_oe_emlrtRTEI            0000000180061b80     c2_flightControlSystem.obj
 0003:00006b98       c2_pe_emlrtRTEI            0000000180061b98     c2_flightControlSystem.obj
 0003:00006bb0       c2_qe_emlrtRTEI            0000000180061bb0     c2_flightControlSystem.obj
 0003:00006bc8       c2_re_emlrtRTEI            0000000180061bc8     c2_flightControlSystem.obj
 0003:00006be0       c2_se_emlrtRTEI            0000000180061be0     c2_flightControlSystem.obj
 0003:00006bf8       c2_ve_emlrtRTEI            0000000180061bf8     c2_flightControlSystem.obj
 0003:00006c10       c2_we_emlrtRTEI            0000000180061c10     c2_flightControlSystem.obj
 0003:00006c28       c2_xe_emlrtRTEI            0000000180061c28     c2_flightControlSystem.obj
 0003:00006c40       c2_ye_emlrtRTEI            0000000180061c40     c2_flightControlSystem.obj
 0003:00006c58       c2_af_emlrtRTEI            0000000180061c58     c2_flightControlSystem.obj
 0003:00006c70       c2_bf_emlrtRTEI            0000000180061c70     c2_flightControlSystem.obj
 0003:00006c88       c2_cf_emlrtRTEI            0000000180061c88     c2_flightControlSystem.obj
 0003:00006ca0       c2_ef_emlrtRTEI            0000000180061ca0     c2_flightControlSystem.obj
 0003:00006cb8       c2_gf_emlrtRTEI            0000000180061cb8     c2_flightControlSystem.obj
 0003:00006cd0       c2_hf_emlrtRTEI            0000000180061cd0     c2_flightControlSystem.obj
 0003:00006ce8       c2_if_emlrtRTEI            0000000180061ce8     c2_flightControlSystem.obj
 0003:00006d00       c2_jf_emlrtRTEI            0000000180061d00     c2_flightControlSystem.obj
 0003:00006d18       c2_of_emlrtRTEI            0000000180061d18     c2_flightControlSystem.obj
 0003:00006d30       c2_qf_emlrtRTEI            0000000180061d30     c2_flightControlSystem.obj
 0003:00006d48       c2_rf_emlrtRTEI            0000000180061d48     c2_flightControlSystem.obj
 0003:00006d60       c2_sf_emlrtRTEI            0000000180061d60     c2_flightControlSystem.obj
 0003:00006d78       c2_tf_emlrtRTEI            0000000180061d78     c2_flightControlSystem.obj
 0003:00006d90       c2_uf_emlrtRTEI            0000000180061d90     c2_flightControlSystem.obj
 0003:00006da8       c2_vf_emlrtRTEI            0000000180061da8     c2_flightControlSystem.obj
 0003:00006dc0       c2_wf_emlrtRTEI            0000000180061dc0     c2_flightControlSystem.obj
 0003:00006dd8       c2_xf_emlrtRTEI            0000000180061dd8     c2_flightControlSystem.obj
 0003:00006df0       c2_yf_emlrtRTEI            0000000180061df0     c2_flightControlSystem.obj
 0003:00006e08       c2_ag_emlrtRTEI            0000000180061e08     c2_flightControlSystem.obj
 0003:00006e20       c2_bg_emlrtRTEI            0000000180061e20     c2_flightControlSystem.obj
 0003:00006e38       c2_cg_emlrtRTEI            0000000180061e38     c2_flightControlSystem.obj
 0003:00006e50       c2_dg_emlrtRTEI            0000000180061e50     c2_flightControlSystem.obj
 0003:00006e68       c2_eg_emlrtRTEI            0000000180061e68     c2_flightControlSystem.obj
 0003:00006e80       c2_fg_emlrtRTEI            0000000180061e80     c2_flightControlSystem.obj
 0003:00006e98       c2_ig_emlrtRTEI            0000000180061e98     c2_flightControlSystem.obj
 0003:00006eb0       c2_kg_emlrtRTEI            0000000180061eb0     c2_flightControlSystem.obj
 0003:00006ec8       c2_lg_emlrtRTEI            0000000180061ec8     c2_flightControlSystem.obj
 0003:00006ee0       c2_ng_emlrtRTEI            0000000180061ee0     c2_flightControlSystem.obj
 0003:00006ef8       c2_og_emlrtRTEI            0000000180061ef8     c2_flightControlSystem.obj
 0003:00006f10       c2_pg_emlrtRTEI            0000000180061f10     c2_flightControlSystem.obj
 0003:00006f28       c2_qg_emlrtRTEI            0000000180061f28     c2_flightControlSystem.obj
 0003:00006f40       c2_rg_emlrtRTEI            0000000180061f40     c2_flightControlSystem.obj
 0003:00006f58       c2_sg_emlrtRTEI            0000000180061f58     c2_flightControlSystem.obj
 0003:00006f70       c2_tg_emlrtRTEI            0000000180061f70     c2_flightControlSystem.obj
 0003:00006f88       c2_ug_emlrtRTEI            0000000180061f88     c2_flightControlSystem.obj
 0003:00006fa0       c2_vg_emlrtRTEI            0000000180061fa0     c2_flightControlSystem.obj
 0003:00006fb8       c2_wg_emlrtRTEI            0000000180061fb8     c2_flightControlSystem.obj
 0003:00006fd0       c2_xg_emlrtRTEI            0000000180061fd0     c2_flightControlSystem.obj
 0003:00006fe8       c2_yg_emlrtRTEI            0000000180061fe8     c2_flightControlSystem.obj
 0003:00007000       c2_ah_emlrtRTEI            0000000180062000     c2_flightControlSystem.obj
 0003:00007018       c2_bh_emlrtRTEI            0000000180062018     c2_flightControlSystem.obj
 0003:00007030       c2_ch_emlrtRTEI            0000000180062030     c2_flightControlSystem.obj
 0003:00007048       c2_dh_emlrtRTEI            0000000180062048     c2_flightControlSystem.obj
 0003:00007060       c2_eh_emlrtRTEI            0000000180062060     c2_flightControlSystem.obj
 0003:00007078       c2_fh_emlrtRTEI            0000000180062078     c2_flightControlSystem.obj
 0003:00007090       c2_gh_emlrtRTEI            0000000180062090     c2_flightControlSystem.obj
 0003:000070a8       c2_hh_emlrtRTEI            00000001800620a8     c2_flightControlSystem.obj
 0003:000070c0       c2_ih_emlrtRTEI            00000001800620c0     c2_flightControlSystem.obj
 0003:000070d8       c2_jh_emlrtRTEI            00000001800620d8     c2_flightControlSystem.obj
 0003:000070f0       c2_kh_emlrtRTEI            00000001800620f0     c2_flightControlSystem.obj
 0003:00007108       c2_lh_emlrtRTEI            0000000180062108     c2_flightControlSystem.obj
 0003:00007120       c2_mh_emlrtRTEI            0000000180062120     c2_flightControlSystem.obj
 0003:00007138       c2_nh_emlrtRTEI            0000000180062138     c2_flightControlSystem.obj
 0003:00007150       c2_oh_emlrtRTEI            0000000180062150     c2_flightControlSystem.obj
 0003:00007168       c2_ph_emlrtRTEI            0000000180062168     c2_flightControlSystem.obj
 0003:00007180       c2_qh_emlrtRTEI            0000000180062180     c2_flightControlSystem.obj
 0003:00007198       c2_rh_emlrtRTEI            0000000180062198     c2_flightControlSystem.obj
 0003:000071b0       c2_sh_emlrtRTEI            00000001800621b0     c2_flightControlSystem.obj
 0003:000071c8       c2_th_emlrtRTEI            00000001800621c8     c2_flightControlSystem.obj
 0003:000071e0       c2_uh_emlrtRTEI            00000001800621e0     c2_flightControlSystem.obj
 0003:000071f8       c2_vh_emlrtRTEI            00000001800621f8     c2_flightControlSystem.obj
 0003:00007210       c2_wh_emlrtRTEI            0000000180062210     c2_flightControlSystem.obj
 0003:00007228       c2_xh_emlrtRTEI            0000000180062228     c2_flightControlSystem.obj
 0003:00007240       c2_yh_emlrtRTEI            0000000180062240     c2_flightControlSystem.obj
 0003:00007258       c2_ai_emlrtRTEI            0000000180062258     c2_flightControlSystem.obj
 0003:00007270       c2_bi_emlrtRTEI            0000000180062270     c2_flightControlSystem.obj
 0003:00007288       c2_ci_emlrtRTEI            0000000180062288     c2_flightControlSystem.obj
 0003:000072a0       c2_di_emlrtRTEI            00000001800622a0     c2_flightControlSystem.obj
 0003:000072b8       c2_ei_emlrtRTEI            00000001800622b8     c2_flightControlSystem.obj
 0003:000072d0       c2_fi_emlrtRTEI            00000001800622d0     c2_flightControlSystem.obj
 0003:000072e8       c2_gi_emlrtRTEI            00000001800622e8     c2_flightControlSystem.obj
 0003:00007300       c2_hi_emlrtRTEI            0000000180062300     c2_flightControlSystem.obj
 0003:00007318       c2_ii_emlrtRTEI            0000000180062318     c2_flightControlSystem.obj
 0003:00007330       c2_ji_emlrtRTEI            0000000180062330     c2_flightControlSystem.obj
 0003:00007348       c2_ki_emlrtRTEI            0000000180062348     c2_flightControlSystem.obj
 0003:00007360       c2_li_emlrtRTEI            0000000180062360     c2_flightControlSystem.obj
 0003:00007378       c2_mi_emlrtRTEI            0000000180062378     c2_flightControlSystem.obj
 0003:00007390       c2_ni_emlrtRTEI            0000000180062390     c2_flightControlSystem.obj
 0003:000073a8       c2_oi_emlrtRTEI            00000001800623a8     c2_flightControlSystem.obj
 0003:000073c0       c2_pi_emlrtRTEI            00000001800623c0     c2_flightControlSystem.obj
 0003:000073d8       c2_qi_emlrtRTEI            00000001800623d8     c2_flightControlSystem.obj
 0003:000073f0       c2_ri_emlrtRTEI            00000001800623f0     c2_flightControlSystem.obj
 0003:00007408       c2_si_emlrtRTEI            0000000180062408     c2_flightControlSystem.obj
 0003:00007420       c2_ti_emlrtRTEI            0000000180062420     c2_flightControlSystem.obj
 0003:00007438       c2_ui_emlrtRTEI            0000000180062438     c2_flightControlSystem.obj
 0003:00007450       c2_vi_emlrtRTEI            0000000180062450     c2_flightControlSystem.obj
 0003:00007468       c2_wi_emlrtRTEI            0000000180062468     c2_flightControlSystem.obj
 0003:00007480       c2_xi_emlrtRTEI            0000000180062480     c2_flightControlSystem.obj
 0003:00007498       c2_yi_emlrtRTEI            0000000180062498     c2_flightControlSystem.obj
 0003:000074b0       c2_cj_emlrtRTEI            00000001800624b0     c2_flightControlSystem.obj
 0003:000074c8       c2_dj_emlrtRTEI            00000001800624c8     c2_flightControlSystem.obj
 0003:000074e0       c2_ej_emlrtRTEI            00000001800624e0     c2_flightControlSystem.obj
 0003:000074f8       c2_fj_emlrtRTEI            00000001800624f8     c2_flightControlSystem.obj
 0003:00007510       c2_gj_emlrtRTEI            0000000180062510     c2_flightControlSystem.obj
 0003:00007528       c2_hj_emlrtRTEI            0000000180062528     c2_flightControlSystem.obj
 0003:00007540       c2_ij_emlrtRTEI            0000000180062540     c2_flightControlSystem.obj
 0003:00007558       c2_jj_emlrtRTEI            0000000180062558     c2_flightControlSystem.obj
 0003:00007570       c2_kj_emlrtRTEI            0000000180062570     c2_flightControlSystem.obj
 0003:00007588       c2_lj_emlrtRTEI            0000000180062588     c2_flightControlSystem.obj
 0003:000075a0       c2_mj_emlrtRTEI            00000001800625a0     c2_flightControlSystem.obj
 0003:000075b8       c2_nj_emlrtRTEI            00000001800625b8     c2_flightControlSystem.obj
 0003:000075d0       c2_oj_emlrtRTEI            00000001800625d0     c2_flightControlSystem.obj
 0003:000075e8       c2_pj_emlrtRTEI            00000001800625e8     c2_flightControlSystem.obj
 0003:00007600       c2_qj_emlrtRTEI            0000000180062600     c2_flightControlSystem.obj
 0003:00007618       c2_rj_emlrtRTEI            0000000180062618     c2_flightControlSystem.obj
 0003:00007630       c2_sj_emlrtRTEI            0000000180062630     c2_flightControlSystem.obj
 0003:00007648       c2_tj_emlrtRTEI            0000000180062648     c2_flightControlSystem.obj
 0003:00007660       c2_uj_emlrtRTEI            0000000180062660     c2_flightControlSystem.obj
 0003:00007678       c2_wj_emlrtRTEI            0000000180062678     c2_flightControlSystem.obj
 0003:00007690       c2_xj_emlrtRTEI            0000000180062690     c2_flightControlSystem.obj
 0003:000076a8       c2_yj_emlrtRTEI            00000001800626a8     c2_flightControlSystem.obj
 0003:000076c0       c2_bk_emlrtRTEI            00000001800626c0     c2_flightControlSystem.obj
 0003:000076d8       c2_ck_emlrtRTEI            00000001800626d8     c2_flightControlSystem.obj
 0003:000076f0       c2_dk_emlrtRTEI            00000001800626f0     c2_flightControlSystem.obj
 0003:00007708       c2_ek_emlrtRTEI            0000000180062708     c2_flightControlSystem.obj
 0003:00007720       c2_fk_emlrtRTEI            0000000180062720     c2_flightControlSystem.obj
 0003:00007738       c2_gk_emlrtRTEI            0000000180062738     c2_flightControlSystem.obj
 0003:00007750       c2_hk_emlrtRTEI            0000000180062750     c2_flightControlSystem.obj
 0003:00007768       c2_ik_emlrtRTEI            0000000180062768     c2_flightControlSystem.obj
 0003:00007780       c2_jk_emlrtRTEI            0000000180062780     c2_flightControlSystem.obj
 0003:00007798       c2_kk_emlrtRTEI            0000000180062798     c2_flightControlSystem.obj
 0003:000077b0       c2_lk_emlrtRTEI            00000001800627b0     c2_flightControlSystem.obj
 0003:000077c8       c2_mk_emlrtRTEI            00000001800627c8     c2_flightControlSystem.obj
 0003:000077e0       c2_nk_emlrtRTEI            00000001800627e0     c2_flightControlSystem.obj
 0003:000077f8       c2_ok_emlrtRTEI            00000001800627f8     c2_flightControlSystem.obj
 0003:00007810       c2_pk_emlrtRTEI            0000000180062810     c2_flightControlSystem.obj
 0003:00007828       c2_qk_emlrtRTEI            0000000180062828     c2_flightControlSystem.obj
 0003:00007840       c2_rk_emlrtRTEI            0000000180062840     c2_flightControlSystem.obj
 0003:00007858       $SG28532                   0000000180062858     c2_flightControlSystem.obj
 0003:00007868       $SG28581                   0000000180062868     c2_flightControlSystem.obj
 0003:0000786c       $SG28582                   000000018006286c     c2_flightControlSystem.obj
 0003:00007870       $SG28583                   0000000180062870     c2_flightControlSystem.obj
 0003:00007874       $SG28584                   0000000180062874     c2_flightControlSystem.obj
 0003:00007878       $SG28585                   0000000180062878     c2_flightControlSystem.obj
 0003:0000787c       $SG28594                   000000018006287c     c2_flightControlSystem.obj
 0003:00007884       $SG28595                   0000000180062884     c2_flightControlSystem.obj
 0003:00007888       $SG28592                   0000000180062888     c2_flightControlSystem.obj
 0003:00007894       $SG28593                   0000000180062894     c2_flightControlSystem.obj
 0003:0000789c       $SG29124                   000000018006289c     c2_flightControlSystem.obj
 0003:000078a0       $SG28596                   00000001800628a0     c2_flightControlSystem.obj
 0003:000078c4       $SG29193                   00000001800628c4     c2_flightControlSystem.obj
 0003:000078c8       $SG28648                   00000001800628c8     c2_flightControlSystem.obj
 0003:000078d8       ?c2_uv1@?1??c2_b_emlrt_marshallIn@@9@9 00000001800628d8     c2_flightControlSystem.obj
 0003:000078e0       ?c2_lut@?1??c2_chartstep_c2_flightControlSystem@@9@9 00000001800628e0     c2_flightControlSystem.obj
 0003:00007ae0       ?c2_b_lut@?1??c2_chartstep_c2_flightControlSystem@@9@9 0000000180062ae0     c2_flightControlSystem.obj
 0003:00007ce0       $SG29287                   0000000180062ce0     c2_flightControlSystem.obj
 0003:00007ce4       $SG29346                   0000000180062ce4     c2_flightControlSystem.obj
 0003:00007ce8       $SG29366                   0000000180062ce8     c2_flightControlSystem.obj
 0003:00007cec       $SG29393                   0000000180062cec     c2_flightControlSystem.obj
 0003:00007cf0       ?c2_sv0@?1??c2_g_sf_marshallOut@@9@9 0000000180062cf0     c2_flightControlSystem.obj
 0003:00007d10       $SG29527                   0000000180062d10     c2_flightControlSystem.obj
 0003:00007d1c       $SG29528                   0000000180062d1c     c2_flightControlSystem.obj
 0003:00007d24       $SG29529                   0000000180062d24     c2_flightControlSystem.obj
 0003:00007d2c       $SG29530                   0000000180062d2c     c2_flightControlSystem.obj
 0003:00007d34       $SG29531                   0000000180062d34     c2_flightControlSystem.obj
 0003:00007d3c       $SG29532                   0000000180062d3c     c2_flightControlSystem.obj
 0003:00007d44       $SG29533                   0000000180062d44     c2_flightControlSystem.obj
 0003:00007d4c       $SG29534                   0000000180062d4c     c2_flightControlSystem.obj
 0003:00007d50       $SG29535                   0000000180062d50     c2_flightControlSystem.obj
 0003:00007d54       $SG29536                   0000000180062d54     c2_flightControlSystem.obj
 0003:00007d58       $SG29537                   0000000180062d58     c2_flightControlSystem.obj
 0003:00007d60       $SG29538                   0000000180062d60     c2_flightControlSystem.obj
 0003:00007d64       $SG29539                   0000000180062d64     c2_flightControlSystem.obj
 0003:00007d6c       $SG29540                   0000000180062d6c     c2_flightControlSystem.obj
 0003:00007d70       $SG29541                   0000000180062d70     c2_flightControlSystem.obj
 0003:00007d78       $SG29542                   0000000180062d78     c2_flightControlSystem.obj
 0003:00007d7c       $SG29543                   0000000180062d7c     c2_flightControlSystem.obj
 0003:00007d80       ?c2_fieldNames@?1??c2_e_emlrt_marshallIn@@9@9 0000000180062d80     c2_flightControlSystem.obj
 0003:00007da0       ?c2_bv5@?1??c2_e_emlrt_marshallIn@@9@9 0000000180062da0     c2_flightControlSystem.obj
 0003:00007da4       $SG29591                   0000000180062da4     c2_flightControlSystem.obj
 0003:00007dac       $SG29592                   0000000180062dac     c2_flightControlSystem.obj
 0003:00007db4       $SG29593                   0000000180062db4     c2_flightControlSystem.obj
 0003:00007dbc       $SG29594                   0000000180062dbc     c2_flightControlSystem.obj
 0003:00007dc4       $SG29595                   0000000180062dc4     c2_flightControlSystem.obj
 0003:00007dcc       $SG29596                   0000000180062dcc     c2_flightControlSystem.obj
 0003:00007dd4       $SG29597                   0000000180062dd4     c2_flightControlSystem.obj
 0003:00007ddc       $SG29598                   0000000180062ddc     c2_flightControlSystem.obj
 0003:00007de4       $SG29599                   0000000180062de4     c2_flightControlSystem.obj
 0003:00007dec       $SG29600                   0000000180062dec     c2_flightControlSystem.obj
 0003:00007df0       $SG29601                   0000000180062df0     c2_flightControlSystem.obj
 0003:00007df4       $SG29602                   0000000180062df4     c2_flightControlSystem.obj
 0003:00007df8       $SG29670                   0000000180062df8     c2_flightControlSystem.obj
 0003:00007dfc       $SG29724                   0000000180062dfc     c2_flightControlSystem.obj
 0003:00007e00       $SG29731                   0000000180062e00     c2_flightControlSystem.obj
 0003:00007e10       ?c2_cv13@?1??c2_validateattributes@@9@9 0000000180062e10     c2_flightControlSystem.obj
 0003:00007e30       ?c2_cv14@?1??c2_validateattributes@@9@9 0000000180062e30     c2_flightControlSystem.obj
 0003:00007e38       $SG29847                   0000000180062e38     c2_flightControlSystem.obj
 0003:00007e3c       $SG29848                   0000000180062e3c     c2_flightControlSystem.obj
 0003:00007e40       $SG29849                   0000000180062e40     c2_flightControlSystem.obj
 0003:00007e44       $SG30389                   0000000180062e44     c2_flightControlSystem.obj
 0003:00007e48       $SG29850                   0000000180062e48     c2_flightControlSystem.obj
 0003:00007e50       $SG29851                   0000000180062e50     c2_flightControlSystem.obj
 0003:00007e5c       $SG29852                   0000000180062e5c     c2_flightControlSystem.obj
 0003:00007e68       ?c2_dv6@?1??c2_edge@@9@9   0000000180062e68     c2_flightControlSystem.obj
 0003:00007e98       $SG30378                   0000000180062e98     c2_flightControlSystem.obj
 0003:00007ea0       ?c2_dv5@?1??c2_edge@@9@9   0000000180062ea0     c2_flightControlSystem.obj
 0003:00007f08       $SG30379                   0000000180062f08     c2_flightControlSystem.obj
 0003:00007f14       $SG30380                   0000000180062f14     c2_flightControlSystem.obj
 0003:00007f1c       $SG30390                   0000000180062f1c     c2_flightControlSystem.obj
 0003:00007f20       $SG30391                   0000000180062f20     c2_flightControlSystem.obj
 0003:00007f28       $SG30392                   0000000180062f28     c2_flightControlSystem.obj
 0003:00007f34       $SG30393                   0000000180062f34     c2_flightControlSystem.obj
 0003:00007f3c       $SG30400                   0000000180062f3c     c2_flightControlSystem.obj
 0003:00007f40       $SG30401                   0000000180062f40     c2_flightControlSystem.obj
 0003:00007f44       $SG30407                   0000000180062f44     c2_flightControlSystem.obj
 0003:00007f48       $SG30402                   0000000180062f48     c2_flightControlSystem.obj
 0003:00007f50       $SG30403                   0000000180062f50     c2_flightControlSystem.obj
 0003:00007f5c       $SG30404                   0000000180062f5c     c2_flightControlSystem.obj
 0003:00007f64       $SG30408                   0000000180062f64     c2_flightControlSystem.obj
 0003:00007f68       $SG30409                   0000000180062f68     c2_flightControlSystem.obj
 0003:00007f70       $SG30410                   0000000180062f70     c2_flightControlSystem.obj
 0003:00007f7c       $SG30411                   0000000180062f7c     c2_flightControlSystem.obj
 0003:00007f88       ?c2_cv15@?1??c2_check_forloop_overflow_error@@9@9 0000000180062f88     c2_flightControlSystem.obj
 0003:00007fb0       ?c2_idxA@?1??c2_padImage@@9@9 0000000180062fb0     c2_flightControlSystem.obj
 0003:000084b0       ?c2_idxA@?1??c2_b_padImage@@9@9 00000001800634b0     c2_flightControlSystem.obj
 0003:00008a10       ?c2_cv16@?1??c2_check_forloop_overflow_error@@9@9 0000000180063a10     c2_flightControlSystem.obj
 0003:00008a18       $SG30888                   0000000180063a18     c2_flightControlSystem.obj
 0003:00008a1c       $SG30889                   0000000180063a1c     c2_flightControlSystem.obj
 0003:00008a20       $SG30890                   0000000180063a20     c2_flightControlSystem.obj
 0003:00008a24       ?c2_cv17@?1??c2_warning@@9@9 0000000180063a24     c2_flightControlSystem.obj
 0003:00008a2c       $SG30913                   0000000180063a2c     c2_flightControlSystem.obj
 0003:00008a30       $SG30891                   0000000180063a30     c2_flightControlSystem.obj
 0003:00008a38       $SG30892                   0000000180063a38     c2_flightControlSystem.obj
 0003:00008a44       $SG30893                   0000000180063a44     c2_flightControlSystem.obj
 0003:00008a4c       ?c2_cv18@?1??c2_warning@@9@9 0000000180063a4c     c2_flightControlSystem.obj
 0003:00008a54       $SG30914                   0000000180063a54     c2_flightControlSystem.obj
 0003:00008a58       ?c2_msgID@?1??c2_warning@@9@9 0000000180063a58     c2_flightControlSystem.obj
 0003:00008a74       $SG30915                   0000000180063a74     c2_flightControlSystem.obj
 0003:00008a78       $SG30916                   0000000180063a78     c2_flightControlSystem.obj
 0003:00008a80       $SG30917                   0000000180063a80     c2_flightControlSystem.obj
 0003:00008a88       ?c2_cv19@?1??c2_indexShapeCheck@@9@9 0000000180063a88     c2_flightControlSystem.obj
 0003:00008aa8       $SG31020                   0000000180063aa8     c2_flightControlSystem.obj
 0003:00008aac       $SG31021                   0000000180063aac     c2_flightControlSystem.obj
 0003:00008ab0       $SG31022                   0000000180063ab0     c2_flightControlSystem.obj
 0003:00008ab8       $SG31023                   0000000180063ab8     c2_flightControlSystem.obj
 0003:00008ac4       $SG31024                   0000000180063ac4     c2_flightControlSystem.obj
 0003:00008acc       ?c2_cv20@?1??c2_b_warning@@9@9 0000000180063acc     c2_flightControlSystem.obj
 0003:00008ad4       ?c2_cv21@?1??c2_b_warning@@9@9 0000000180063ad4     c2_flightControlSystem.obj
 0003:00008adc       $SG31057                   0000000180063adc     c2_flightControlSystem.obj
 0003:00008ae0       ?c2_msgID@?1??c2_b_warning@@9@9 0000000180063ae0     c2_flightControlSystem.obj
 0003:00008afc       $SG31058                   0000000180063afc     c2_flightControlSystem.obj
 0003:00008b00       $SG31059                   0000000180063b00     c2_flightControlSystem.obj
 0003:00008b04       $SG31060                   0000000180063b04     c2_flightControlSystem.obj
 0003:00008b0c       $SG31061                   0000000180063b0c     c2_flightControlSystem.obj
 0003:00008b14       $SG31123                   0000000180063b14     c2_flightControlSystem.obj
 0003:00008b18       $SG31124                   0000000180063b18     c2_flightControlSystem.obj
 0003:00008b1c       $SG31467                   0000000180063b1c     c2_flightControlSystem.obj
 0003:00008b20       $SG31125                   0000000180063b20     c2_flightControlSystem.obj
 0003:00008b28       $SG31126                   0000000180063b28     c2_flightControlSystem.obj
 0003:00008b34       $SG31127                   0000000180063b34     c2_flightControlSystem.obj
 0003:00008b3c       $SG31468                   0000000180063b3c     c2_flightControlSystem.obj
 0003:00008b40       ?c2_cv22@?1??c2_imfill@@9@9 0000000180063b40     c2_flightControlSystem.obj
 0003:00008b64       $SG31469                   0000000180063b64     c2_flightControlSystem.obj
 0003:00008b68       $SG31287                   0000000180063b68     c2_flightControlSystem.obj
 0003:00008b70       $SG31288                   0000000180063b70     c2_flightControlSystem.obj
 0003:00008b7c       $SG31289                   0000000180063b7c     c2_flightControlSystem.obj
 0003:00008b84       $SG31483                   0000000180063b84     c2_flightControlSystem.obj
 0003:00008b88       ?c2_cv23@?1??c2_b_validateattributes@@9@9 0000000180063b88     c2_flightControlSystem.obj
 0003:00008ba8       ?c2_cv24@?1??c2_b_validateattributes@@9@9 0000000180063ba8     c2_flightControlSystem.obj
 0003:00008bc4       $SG31484                   0000000180063bc4     c2_flightControlSystem.obj
 0003:00008bc8       ?c2_cv25@?1??c2_b_validateattributes@@9@9 0000000180063bc8     c2_flightControlSystem.obj
 0003:00008be8       ?c2_cv26@?1??c2_b_validateattributes@@9@9 0000000180063be8     c2_flightControlSystem.obj
 0003:00008c04       $SG31485                   0000000180063c04     c2_flightControlSystem.obj
 0003:00008c08       $SG31470                   0000000180063c08     c2_flightControlSystem.obj
 0003:00008c10       $SG31471                   0000000180063c10     c2_flightControlSystem.obj
 0003:00008c1c       $SG31472                   0000000180063c1c     c2_flightControlSystem.obj
 0003:00008c24       $SG31528                   0000000180063c24     c2_flightControlSystem.obj
 0003:00008c28       $SG31486                   0000000180063c28     c2_flightControlSystem.obj
 0003:00008c30       $SG31487                   0000000180063c30     c2_flightControlSystem.obj
 0003:00008c3c       $SG31488                   0000000180063c3c     c2_flightControlSystem.obj
 0003:00008c44       $SG31529                   0000000180063c44     c2_flightControlSystem.obj
 0003:00008c48       $SG31530                   0000000180063c48     c2_flightControlSystem.obj
 0003:00008c50       $SG31531                   0000000180063c50     c2_flightControlSystem.obj
 0003:00008c5c       $SG31532                   0000000180063c5c     c2_flightControlSystem.obj
 0003:00008c64       ?c2_cv27@?1??c2_c_warning@@9@9 0000000180063c64     c2_flightControlSystem.obj
 0003:00008c6c       ?c2_cv28@?1??c2_c_warning@@9@9 0000000180063c6c     c2_flightControlSystem.obj
 0003:00008c74       $SG31559                   0000000180063c74     c2_flightControlSystem.obj
 0003:00008c78       ?c2_msgID@?1??c2_c_warning@@9@9 0000000180063c78     c2_flightControlSystem.obj
 0003:00008c90       $SG31560                   0000000180063c90     c2_flightControlSystem.obj
 0003:00008c94       $SG31561                   0000000180063c94     c2_flightControlSystem.obj
 0003:00008c98       $SG31562                   0000000180063c98     c2_flightControlSystem.obj
 0003:00008ca0       $SG31563                   0000000180063ca0     c2_flightControlSystem.obj
 0003:00008ca8       ?c2_nonZeroKernel@?1??c2_e_imfilter@@9@9 0000000180063ca8     c2_flightControlSystem.obj
 0003:00008cd8       ?c2_cv29@?1??c2_imfindcircles@@9@9 0000000180063cd8     c2_flightControlSystem.obj
 0003:00008d00       ?c2_idxA@?1??c2_c_padImage@@9@9 0000000180063d00     c2_flightControlSystem.obj
 0003:00009220       ?c2_kernel@?1??c2_e_imfilter@@9@9 0000000180064220     c2_flightControlSystem.obj
 0003:00009268       ?c2_conn@?1??c2_e_imfilter@@9@9 0000000180064268     c2_flightControlSystem.obj
 0003:00009278       ?c2_nonZeroKernel@?1??c2_f_imfilter@@9@9 0000000180064278     c2_flightControlSystem.obj
 0003:000092a8       ?c2_cv30@?1??c2_imfindcircles@@9@9 00000001800642a8     c2_flightControlSystem.obj
 0003:000092c0       ?c2_idxA@?1??c2_d_padImage@@9@9 00000001800642c0     c2_flightControlSystem.obj
 0003:000097d0       ?c2_kernel@?1??c2_f_imfilter@@9@9 00000001800647d0     c2_flightControlSystem.obj
 0003:00009818       ?c2_conn@?1??c2_f_imfilter@@9@9 0000000180064818     c2_flightControlSystem.obj
 0003:00009824       $SG32336                   0000000180064824     c2_flightControlSystem.obj
 0003:00009828       ?c2_cv31@?1??c2_imfindcircles@@9@9 0000000180064828     c2_flightControlSystem.obj
 0003:00009850       ?c2_cv32@?1??c2_imfindcircles@@9@9 0000000180064850     c2_flightControlSystem.obj
 0003:00009880       ?c2_cv33@?1??c2_imfindcircles@@9@9 0000000180064880     c2_flightControlSystem.obj
 0003:000098a8       ?c2_cv34@?1??c2_imfindcircles@@9@9 00000001800648a8     c2_flightControlSystem.obj
 0003:000098c0       ?c2_cv35@?1??c2_imfindcircles@@9@9 00000001800648c0     c2_flightControlSystem.obj
 0003:000098f0       ?c2_cv36@?1??c2_imfindcircles@@9@9 00000001800648f0     c2_flightControlSystem.obj
 0003:00009908       ?c2_cv37@?1??c2_imfindcircles@@9@9 0000000180064908     c2_flightControlSystem.obj
 0003:00009930       $SG32337                   0000000180064930     c2_flightControlSystem.obj
 0003:00009934       $SG32355                   0000000180064934     c2_flightControlSystem.obj
 0003:00009938       $SG32338                   0000000180064938     c2_flightControlSystem.obj
 0003:00009940       $SG32339                   0000000180064940     c2_flightControlSystem.obj
 0003:0000994c       $SG32340                   000000018006494c     c2_flightControlSystem.obj
 0003:00009954       $SG32356                   0000000180064954     c2_flightControlSystem.obj
 0003:00009958       $SG32357                   0000000180064958     c2_flightControlSystem.obj
 0003:0000995c       $SG32363                   000000018006495c     c2_flightControlSystem.obj
 0003:00009960       $SG32358                   0000000180064960     c2_flightControlSystem.obj
 0003:00009968       $SG32359                   0000000180064968     c2_flightControlSystem.obj
 0003:00009974       $SG32360                   0000000180064974     c2_flightControlSystem.obj
 0003:0000997c       $SG32364                   000000018006497c     c2_flightControlSystem.obj
 0003:00009980       $SG32365                   0000000180064980     c2_flightControlSystem.obj
 0003:00009984       $SG32371                   0000000180064984     c2_flightControlSystem.obj
 0003:00009988       $SG32366                   0000000180064988     c2_flightControlSystem.obj
 0003:00009990       $SG32367                   0000000180064990     c2_flightControlSystem.obj
 0003:0000999c       $SG32368                   000000018006499c     c2_flightControlSystem.obj
 0003:000099a4       $SG32372                   00000001800649a4     c2_flightControlSystem.obj
 0003:000099a8       $SG32373                   00000001800649a8     c2_flightControlSystem.obj
 0003:000099ac       $SG32374                   00000001800649ac     c2_flightControlSystem.obj
 0003:000099b0       $SG32375                   00000001800649b0     c2_flightControlSystem.obj
 0003:000099b8       $SG32376                   00000001800649b8     c2_flightControlSystem.obj
 0003:000099c4       $SG32377                   00000001800649c4     c2_flightControlSystem.obj
 0003:000099cc       $SG32384                   00000001800649cc     c2_flightControlSystem.obj
 0003:000099d0       $SG32385                   00000001800649d0     c2_flightControlSystem.obj
 0003:000099d4       $SG32391                   00000001800649d4     c2_flightControlSystem.obj
 0003:000099d8       $SG32386                   00000001800649d8     c2_flightControlSystem.obj
 0003:000099e0       $SG32387                   00000001800649e0     c2_flightControlSystem.obj
 0003:000099ec       $SG32388                   00000001800649ec     c2_flightControlSystem.obj
 0003:000099f4       $SG32392                   00000001800649f4     c2_flightControlSystem.obj
 0003:000099f8       $SG32393                   00000001800649f8     c2_flightControlSystem.obj
 0003:00009a00       $SG32394                   0000000180064a00     c2_flightControlSystem.obj
 0003:00009a0c       $SG32395                   0000000180064a0c     c2_flightControlSystem.obj
 0003:00009a14       $SG32402                   0000000180064a14     c2_flightControlSystem.obj
 0003:00009a18       $SG32403                   0000000180064a18     c2_flightControlSystem.obj
 0003:00009a1c       $SG32409                   0000000180064a1c     c2_flightControlSystem.obj
 0003:00009a20       $SG32404                   0000000180064a20     c2_flightControlSystem.obj
 0003:00009a28       $SG32405                   0000000180064a28     c2_flightControlSystem.obj
 0003:00009a34       $SG32406                   0000000180064a34     c2_flightControlSystem.obj
 0003:00009a3c       $SG32410                   0000000180064a3c     c2_flightControlSystem.obj
 0003:00009a40       $SG32411                   0000000180064a40     c2_flightControlSystem.obj
 0003:00009a48       $SG32412                   0000000180064a48     c2_flightControlSystem.obj
 0003:00009a54       $SG32413                   0000000180064a54     c2_flightControlSystem.obj
 0003:00009a60       ?c2_kernel@?1??c2_chaccum@@9@9 0000000180064a60     c2_flightControlSystem.obj
 0003:00009b28       $SG33097                   0000000180064b28     c2_flightControlSystem.obj
 0003:00009b30       ?c2_nonZeroKernel@?1??c2_chaccum@@9@9 0000000180064b30     c2_flightControlSystem.obj
 0003:00009bf8       $SG33098                   0000000180064bf8     c2_flightControlSystem.obj
 0003:00009c00       ?c2_Opca@?1??c2_chaccum@@9@9 0000000180064c00     c2_flightControlSystem.obj
 0003:00009f30       ?c2_dv7@?1??c2_chaccum@@9@9 0000000180064f30     c2_flightControlSystem.obj
 0003:0000a0c8       $SG33099                   00000001800650c8     c2_flightControlSystem.obj
 0003:0000a0d0       $SG33100                   00000001800650d0     c2_flightControlSystem.obj
 0003:0000a0dc       $SG33101                   00000001800650dc     c2_flightControlSystem.obj
 0003:0000a0e4       $SG33108                   00000001800650e4     c2_flightControlSystem.obj
 0003:0000a0e8       $SG33109                   00000001800650e8     c2_flightControlSystem.obj
 0003:0000a0ec       $SG33115                   00000001800650ec     c2_flightControlSystem.obj
 0003:0000a0f0       $SG33110                   00000001800650f0     c2_flightControlSystem.obj
 0003:0000a0f8       $SG33111                   00000001800650f8     c2_flightControlSystem.obj
 0003:0000a104       $SG33112                   0000000180065104     c2_flightControlSystem.obj
 0003:0000a10c       $SG33116                   000000018006510c     c2_flightControlSystem.obj
 0003:0000a110       $SG33117                   0000000180065110     c2_flightControlSystem.obj
 0003:0000a118       $SG33118                   0000000180065118     c2_flightControlSystem.obj
 0003:0000a124       $SG33119                   0000000180065124     c2_flightControlSystem.obj
 0003:0000a12c       ?c2_cv38@?1??c2_d_warning@@9@9 000000018006512c     c2_flightControlSystem.obj
 0003:0000a134       ?c2_cv39@?1??c2_d_warning@@9@9 0000000180065134     c2_flightControlSystem.obj
 0003:0000a13c       $SG33669                   000000018006513c     c2_flightControlSystem.obj
 0003:0000a140       ?c2_msgID@?1??c2_d_warning@@9@9 0000000180065140     c2_flightControlSystem.obj
 0003:0000a164       $SG33670                   0000000180065164     c2_flightControlSystem.obj
 0003:0000a168       $SG33671                   0000000180065168     c2_flightControlSystem.obj
 0003:0000a16c       $SG33672                   000000018006516c     c2_flightControlSystem.obj
 0003:0000a170       $SG33673                   0000000180065170     c2_flightControlSystem.obj
 0003:0000a178       $SG33674                   0000000180065178     c2_flightControlSystem.obj
 0003:0000a180       ?c2_cv40@?1??c2_e_warning@@9@9 0000000180065180     c2_flightControlSystem.obj
 0003:0000a188       ?c2_cv41@?1??c2_e_warning@@9@9 0000000180065188     c2_flightControlSystem.obj
 0003:0000a190       ?c2_msgID@?1??c2_e_warning@@9@9 0000000180065190     c2_flightControlSystem.obj
 0003:0000a1b0       $SG34094                   00000001800651b0     c2_flightControlSystem.obj
 0003:0000a1b4       $SG34095                   00000001800651b4     c2_flightControlSystem.obj
 0003:0000a1b8       $SG34096                   00000001800651b8     c2_flightControlSystem.obj
 0003:0000a1bc       $SG34097                   00000001800651bc     c2_flightControlSystem.obj
 0003:0000a1c4       $SG34098                   00000001800651c4     c2_flightControlSystem.obj
 0003:0000a1cc       $SG34957                   00000001800651cc     c2_flightControlSystem.obj
 0003:0000a1d0       ?c2_cv42@?1??c2_chcenters@@9@9 00000001800651d0     c2_flightControlSystem.obj
 0003:0000a1f4       ?c2_cv43@?1??c2_chcenters@@9@9 00000001800651f4     c2_flightControlSystem.obj
 0003:0000a1fc       $SG34958                   00000001800651fc     c2_flightControlSystem.obj
 0003:0000a200       ?c2_cv44@?1??c2_chcenters@@9@9 0000000180065200     c2_flightControlSystem.obj
 0003:0000a224       ?c2_cv45@?1??c2_chcenters@@9@9 0000000180065224     c2_flightControlSystem.obj
 0003:0000a22c       $SG34959                   000000018006522c     c2_flightControlSystem.obj
 0003:0000a230       ?c2_cv46@?1??c2_chcenters@@9@9 0000000180065230     c2_flightControlSystem.obj
 0003:0000a254       $SG34969                   0000000180065254     c2_flightControlSystem.obj
 0003:0000a258       ?c2_cv47@?1??c2_chcenters@@9@9 0000000180065258     c2_flightControlSystem.obj
 0003:0000a26c       $SG34970                   000000018006526c     c2_flightControlSystem.obj
 0003:0000a270       ?c2_cv48@?1??c2_chcenters@@9@9 0000000180065270     c2_flightControlSystem.obj
 0003:0000a284       $SG34971                   0000000180065284     c2_flightControlSystem.obj
 0003:0000a288       $SG34960                   0000000180065288     c2_flightControlSystem.obj
 0003:0000a290       $SG34961                   0000000180065290     c2_flightControlSystem.obj
 0003:0000a29c       $SG34962                   000000018006529c     c2_flightControlSystem.obj
 0003:0000a2a4       $SG34981                   00000001800652a4     c2_flightControlSystem.obj
 0003:0000a2a8       $SG34972                   00000001800652a8     c2_flightControlSystem.obj
 0003:0000a2b0       $SG34973                   00000001800652b0     c2_flightControlSystem.obj
 0003:0000a2bc       $SG34974                   00000001800652bc     c2_flightControlSystem.obj
 0003:0000a2c4       $SG34982                   00000001800652c4     c2_flightControlSystem.obj
 0003:0000a2c8       $SG34983                   00000001800652c8     c2_flightControlSystem.obj
 0003:0000a2cc       $SG34988                   00000001800652cc     c2_flightControlSystem.obj
 0003:0000a2d0       $SG34984                   00000001800652d0     c2_flightControlSystem.obj
 0003:0000a2d8       $SG34985                   00000001800652d8     c2_flightControlSystem.obj
 0003:0000a2e4       $SG34986                   00000001800652e4     c2_flightControlSystem.obj
 0003:0000a2ec       $SG34989                   00000001800652ec     c2_flightControlSystem.obj
 0003:0000a2f0       $SG34990                   00000001800652f0     c2_flightControlSystem.obj
 0003:0000a2f8       $SG34991                   00000001800652f8     c2_flightControlSystem.obj
 0003:0000a304       $SG34992                   0000000180065304     c2_flightControlSystem.obj
 0003:0000a30c       $SG35004                   000000018006530c     c2_flightControlSystem.obj
 0003:0000a310       $SG35005                   0000000180065310     c2_flightControlSystem.obj
 0003:0000a314       $SG35014                   0000000180065314     c2_flightControlSystem.obj
 0003:0000a318       $SG35006                   0000000180065318     c2_flightControlSystem.obj
 0003:0000a320       $SG35007                   0000000180065320     c2_flightControlSystem.obj
 0003:0000a32c       $SG35008                   000000018006532c     c2_flightControlSystem.obj
 0003:0000a334       $SG35015                   0000000180065334     c2_flightControlSystem.obj
 0003:0000a338       $SG35016                   0000000180065338     c2_flightControlSystem.obj
 0003:0000a340       $SG35017                   0000000180065340     c2_flightControlSystem.obj
 0003:0000a34c       $SG35018                   000000018006534c     c2_flightControlSystem.obj
 0003:0000a354       $SG35024                   0000000180065354     c2_flightControlSystem.obj
 0003:0000a358       $SG35025                   0000000180065358     c2_flightControlSystem.obj
 0003:0000a35c       $SG35035                   000000018006535c     c2_flightControlSystem.obj
 0003:0000a360       $SG35026                   0000000180065360     c2_flightControlSystem.obj
 0003:0000a368       $SG35027                   0000000180065368     c2_flightControlSystem.obj
 0003:0000a374       $SG35028                   0000000180065374     c2_flightControlSystem.obj
 0003:0000a37c       $SG35036                   000000018006537c     c2_flightControlSystem.obj
 0003:0000a380       $SG35037                   0000000180065380     c2_flightControlSystem.obj
 0003:0000a388       $SG35038                   0000000180065388     c2_flightControlSystem.obj
 0003:0000a394       $SG35039                   0000000180065394     c2_flightControlSystem.obj
 0003:0000a39c       $SG35042                   000000018006539c     c2_flightControlSystem.obj
 0003:0000a3a0       $SG35043                   00000001800653a0     c2_flightControlSystem.obj
 0003:0000a3a4       $SG35357                   00000001800653a4     c2_flightControlSystem.obj
 0003:0000a3a8       $SG35044                   00000001800653a8     c2_flightControlSystem.obj
 0003:0000a3b0       $SG35045                   00000001800653b0     c2_flightControlSystem.obj
 0003:0000a3bc       $SG35046                   00000001800653bc     c2_flightControlSystem.obj
 0003:0000a3c4       $SG35358                   00000001800653c4     c2_flightControlSystem.obj
 0003:0000a3c8       ?c2_cv49@?1??c2_medfilt2@@9@9 00000001800653c8     c2_flightControlSystem.obj
 0003:0000a3f0       ?c2_cv50@?1??c2_medfilt2@@9@9 00000001800653f0     c2_flightControlSystem.obj
 0003:0000a418       $SG35359                   0000000180065418     c2_flightControlSystem.obj
 0003:0000a420       $SG35360                   0000000180065420     c2_flightControlSystem.obj
 0003:0000a42c       $SG35361                   000000018006542c     c2_flightControlSystem.obj
 0003:0000a434       $SG35364                   0000000180065434     c2_flightControlSystem.obj
 0003:0000a438       $SG35365                   0000000180065438     c2_flightControlSystem.obj
 0003:0000a43c       $SG35397                   000000018006543c     c2_flightControlSystem.obj
 0003:0000a440       $SG35366                   0000000180065440     c2_flightControlSystem.obj
 0003:0000a448       $SG35367                   0000000180065448     c2_flightControlSystem.obj
 0003:0000a454       $SG35368                   0000000180065454     c2_flightControlSystem.obj
 0003:0000a45c       $SG35398                   000000018006545c     c2_flightControlSystem.obj
 0003:0000a460       $SG35399                   0000000180065460     c2_flightControlSystem.obj
 0003:0000a468       $SG35400                   0000000180065468     c2_flightControlSystem.obj
 0003:0000a474       $SG35401                   0000000180065474     c2_flightControlSystem.obj
 0003:0000a47c       $SG35404                   000000018006547c     c2_flightControlSystem.obj
 0003:0000a480       $SG35405                   0000000180065480     c2_flightControlSystem.obj
 0003:0000a484       $SG35631                   0000000180065484     c2_flightControlSystem.obj
 0003:0000a488       $SG35406                   0000000180065488     c2_flightControlSystem.obj
 0003:0000a490       $SG35407                   0000000180065490     c2_flightControlSystem.obj
 0003:0000a49c       $SG35408                   000000018006549c     c2_flightControlSystem.obj
 0003:0000a4a4       $SG35632                   00000001800654a4     c2_flightControlSystem.obj
 0003:0000a4a8       ?c2_cv51@?1??c2_padarray@@9@9 00000001800654a8     c2_flightControlSystem.obj
 0003:0000a4c8       ?c2_cv52@?1??c2_padarray@@9@9 00000001800654c8     c2_flightControlSystem.obj
 0003:0000a4e0       ?c2_cv53@?1??c2_padarray@@9@9 00000001800654e0     c2_flightControlSystem.obj
 0003:0000a500       ?c2_cv54@?1??c2_padarray@@9@9 0000000180065500     c2_flightControlSystem.obj
 0003:0000a518       $SG35633                   0000000180065518     c2_flightControlSystem.obj
 0003:0000a51c       $SG35641                   000000018006551c     c2_flightControlSystem.obj
 0003:0000a520       $SG35634                   0000000180065520     c2_flightControlSystem.obj
 0003:0000a528       $SG35635                   0000000180065528     c2_flightControlSystem.obj
 0003:0000a534       $SG35636                   0000000180065534     c2_flightControlSystem.obj
 0003:0000a53c       $SG35642                   000000018006553c     c2_flightControlSystem.obj
 0003:0000a540       $SG35643                   0000000180065540     c2_flightControlSystem.obj
 0003:0000a544       $SG36316                   0000000180065544     c2_flightControlSystem.obj
 0003:0000a548       $SG35644                   0000000180065548     c2_flightControlSystem.obj
 0003:0000a550       $SG35645                   0000000180065550     c2_flightControlSystem.obj
 0003:0000a55c       $SG35646                   000000018006555c     c2_flightControlSystem.obj
 0003:0000a564       $SG36317                   0000000180065564     c2_flightControlSystem.obj
 0003:0000a568       ?c2_cv55@?1??c2_regionprops@@9@9 0000000180065568     c2_flightControlSystem.obj
 0003:0000a588       ?c2_cv56@?1??c2_regionprops@@9@9 0000000180065588     c2_flightControlSystem.obj
 0003:0000a5ac       $SG36323                   00000001800655ac     c2_flightControlSystem.obj
 0003:0000a5b0       ?c2_cv57@?1??c2_regionprops@@9@9 00000001800655b0     c2_flightControlSystem.obj
 0003:0000a5d4       $SG36327                   00000001800655d4     c2_flightControlSystem.obj
 0003:0000a5d8       ?c2_cv58@?1??c2_regionprops@@9@9 00000001800655d8     c2_flightControlSystem.obj
 0003:0000a600       $SG36318                   0000000180065600     c2_flightControlSystem.obj
 0003:0000a608       $SG36319                   0000000180065608     c2_flightControlSystem.obj
 0003:0000a614       $SG36320                   0000000180065614     c2_flightControlSystem.obj
 0003:0000a61c       $SG36324                   000000018006561c     c2_flightControlSystem.obj
 0003:0000a624       $SG36328                   0000000180065624     c2_flightControlSystem.obj
 0003:0000a62c       $SG36343                   000000018006562c     c2_flightControlSystem.obj
 0003:0000a630       $SG36344                   0000000180065630     c2_flightControlSystem.obj
 0003:0000a634       $SG36352                   0000000180065634     c2_flightControlSystem.obj
 0003:0000a638       $SG36345                   0000000180065638     c2_flightControlSystem.obj
 0003:0000a640       $SG36346                   0000000180065640     c2_flightControlSystem.obj
 0003:0000a64c       $SG36347                   000000018006564c     c2_flightControlSystem.obj
 0003:0000a654       $SG36353                   0000000180065654     c2_flightControlSystem.obj
 0003:0000a658       $SG36354                   0000000180065658     c2_flightControlSystem.obj
 0003:0000a660       $SG36355                   0000000180065660     c2_flightControlSystem.obj
 0003:0000a66c       $SG36356                   000000018006566c     c2_flightControlSystem.obj
 0003:0000a674       $SG36361                   0000000180065674     c2_flightControlSystem.obj
 0003:0000a678       $SG36362                   0000000180065678     c2_flightControlSystem.obj
 0003:0000a67c       $SG36368                   000000018006567c     c2_flightControlSystem.obj
 0003:0000a680       $SG36363                   0000000180065680     c2_flightControlSystem.obj
 0003:0000a688       $SG36364                   0000000180065688     c2_flightControlSystem.obj
 0003:0000a694       $SG36365                   0000000180065694     c2_flightControlSystem.obj
 0003:0000a69c       $SG36369                   000000018006569c     c2_flightControlSystem.obj
 0003:0000a6a0       $SG36370                   00000001800656a0     c2_flightControlSystem.obj
 0003:0000a6a8       $SG36371                   00000001800656a8     c2_flightControlSystem.obj
 0003:0000a6b4       $SG36372                   00000001800656b4     c2_flightControlSystem.obj
 0003:0000a6bc       $SG36745                   00000001800656bc     c2_flightControlSystem.obj
 0003:0000a6c0       ?c2_cv59@?1??c2_assertValidSizeArg@@9@9 00000001800656c0     c2_flightControlSystem.obj
 0003:0000a6dc       $SG36746                   00000001800656dc     c2_flightControlSystem.obj
 0003:0000a6e0       ?c2_cv60@?1??c2_assertValidSizeArg@@9@9 00000001800656e0     c2_flightControlSystem.obj
 0003:0000a6f8       $SG36747                   00000001800656f8     c2_flightControlSystem.obj
 0003:0000a6fc       $SG36748                   00000001800656fc     c2_flightControlSystem.obj
 0003:0000a700       $SG36749                   0000000180065700     c2_flightControlSystem.obj
 0003:0000a708       $SG36750                   0000000180065708     c2_flightControlSystem.obj
 0003:0000a714       $SG36751                   0000000180065714     c2_flightControlSystem.obj
 0003:0000a71c       $SG36756                   000000018006571c     c2_flightControlSystem.obj
 0003:0000a720       $SG36757                   0000000180065720     c2_flightControlSystem.obj
 0003:0000a724       $SG36824                   0000000180065724     c2_flightControlSystem.obj
 0003:0000a728       $SG36758                   0000000180065728     c2_flightControlSystem.obj
 0003:0000a730       $SG36759                   0000000180065730     c2_flightControlSystem.obj
 0003:0000a73c       $SG36760                   000000018006573c     c2_flightControlSystem.obj
 0003:0000a744       $SG36825                   0000000180065744     c2_flightControlSystem.obj
 0003:0000a748       $SG36826                   0000000180065748     c2_flightControlSystem.obj
 0003:0000a750       $SG36827                   0000000180065750     c2_flightControlSystem.obj
 0003:0000a75c       $SG36828                   000000018006575c     c2_flightControlSystem.obj
 0003:0000a764       $SG36994                   0000000180065764     c2_flightControlSystem.obj
 0003:0000a768       $SG36995                   0000000180065768     c2_flightControlSystem.obj
 0003:0000a76c       $SG37309                   000000018006576c     c2_flightControlSystem.obj
 0003:0000a770       $SG36996                   0000000180065770     c2_flightControlSystem.obj
 0003:0000a778       $SG36997                   0000000180065778     c2_flightControlSystem.obj
 0003:0000a784       $SG36998                   0000000180065784     c2_flightControlSystem.obj
 0003:0000a78c       $SG37310                   000000018006578c     c2_flightControlSystem.obj
 0003:0000a790       ?c2_cv61@?1??c2_houghpeaks@@9@9 0000000180065790     c2_flightControlSystem.obj
 0003:0000a7b0       ?c2_cv62@?1??c2_houghpeaks@@9@9 00000001800657b0     c2_flightControlSystem.obj
 0003:0000a7bc       $SG37311                   00000001800657bc     c2_flightControlSystem.obj
 0003:0000a7c0       ?c2_cv63@?1??c2_houghpeaks@@9@9 00000001800657c0     c2_flightControlSystem.obj
 0003:0000a7cc       $SG37314                   00000001800657cc     c2_flightControlSystem.obj
 0003:0000a7d4       $SG37321                   00000001800657d4     c2_flightControlSystem.obj
 0003:0000a7d8       ?c2_cv64@?1??c2_houghpeaks@@9@9 00000001800657d8     c2_flightControlSystem.obj
 0003:0000a7e4       $SG37322                   00000001800657e4     c2_flightControlSystem.obj
 0003:0000a7e8       ?c2_cv65@?1??c2_houghpeaks@@9@9 00000001800657e8     c2_flightControlSystem.obj
 0003:0000a80c       $SG37323                   000000018006580c     c2_flightControlSystem.obj
 0003:0000a810       ?c2_cv66@?1??c2_houghpeaks@@9@9 0000000180065810     c2_flightControlSystem.obj
 0003:0000a81c       $SG37326                   000000018006581c     c2_flightControlSystem.obj
 0003:0000a824       $SG37331                   0000000180065824     c2_flightControlSystem.obj
 0003:0000a828       ?c2_cv67@?1??c2_houghpeaks@@9@9 0000000180065828     c2_flightControlSystem.obj
 0003:0000a848       ?c2_cv68@?1??c2_houghpeaks@@9@9 0000000180065848     c2_flightControlSystem.obj
 0003:0000a874       $SG37332                   0000000180065874     c2_flightControlSystem.obj
 0003:0000a878       ?c2_cv69@?1??c2_houghpeaks@@9@9 0000000180065878     c2_flightControlSystem.obj
 0003:0000a884       ?c2_cv70@?1??c2_houghpeaks@@9@9 0000000180065884     c2_flightControlSystem.obj
 0003:0000a88c       $SG37333                   000000018006588c     c2_flightControlSystem.obj
 0003:0000a890       ?c2_cv71@?1??c2_houghpeaks@@9@9 0000000180065890     c2_flightControlSystem.obj
 0003:0000a8bc       $SG37343                   00000001800658bc     c2_flightControlSystem.obj
 0003:0000a8c0       $SG37312                   00000001800658c0     c2_flightControlSystem.obj
 0003:0000a8c8       $SG37313                   00000001800658c8     c2_flightControlSystem.obj
 0003:0000a8d4       $SG37344                   00000001800658d4     c2_flightControlSystem.obj
 0003:0000a8d8       $SG37324                   00000001800658d8     c2_flightControlSystem.obj
 0003:0000a8e0       $SG37325                   00000001800658e0     c2_flightControlSystem.obj
 0003:0000a8ec       $SG37345                   00000001800658ec     c2_flightControlSystem.obj
 0003:0000a8f0       $SG37334                   00000001800658f0     c2_flightControlSystem.obj
 0003:0000a8f8       $SG37335                   00000001800658f8     c2_flightControlSystem.obj
 0003:0000a904       $SG37336                   0000000180065904     c2_flightControlSystem.obj
 0003:0000a90c       $SG37360                   000000018006590c     c2_flightControlSystem.obj
 0003:0000a910       $SG37346                   0000000180065910     c2_flightControlSystem.obj
 0003:0000a918       $SG37347                   0000000180065918     c2_flightControlSystem.obj
 0003:0000a924       $SG37348                   0000000180065924     c2_flightControlSystem.obj
 0003:0000a92c       $SG37361                   000000018006592c     c2_flightControlSystem.obj
 0003:0000a930       $SG37362                   0000000180065930     c2_flightControlSystem.obj
 0003:0000a934       $SG37372                   0000000180065934     c2_flightControlSystem.obj
 0003:0000a938       $SG37363                   0000000180065938     c2_flightControlSystem.obj
 0003:0000a940       $SG37364                   0000000180065940     c2_flightControlSystem.obj
 0003:0000a94c       $SG37365                   000000018006594c     c2_flightControlSystem.obj
 0003:0000a954       $SG37373                   0000000180065954     c2_flightControlSystem.obj
 0003:0000a958       $SG37374                   0000000180065958     c2_flightControlSystem.obj
 0003:0000a95c       $SG37380                   000000018006595c     c2_flightControlSystem.obj
 0003:0000a960       $SG37375                   0000000180065960     c2_flightControlSystem.obj
 0003:0000a968       $SG37376                   0000000180065968     c2_flightControlSystem.obj
 0003:0000a974       $SG37377                   0000000180065974     c2_flightControlSystem.obj
 0003:0000a97c       $SG37381                   000000018006597c     c2_flightControlSystem.obj
 0003:0000a980       $SG37382                   0000000180065980     c2_flightControlSystem.obj
 0003:0000a988       $SG37383                   0000000180065988     c2_flightControlSystem.obj
 0003:0000a994       $SG37384                   0000000180065994     c2_flightControlSystem.obj
 0003:0000a99c       $SG37479                   000000018006599c     c2_flightControlSystem.obj
 0003:0000a9a0       ?c2_cv72@?1??c2_c_validateattributes@@9@9 00000001800659a0     c2_flightControlSystem.obj
 0003:0000a9b4       $SG37480                   00000001800659b4     c2_flightControlSystem.obj
 0003:0000a9b8       ?c2_cv73@?1??c2_c_validateattributes@@9@9 00000001800659b8     c2_flightControlSystem.obj
 0003:0000a9cc       $SG37481                   00000001800659cc     c2_flightControlSystem.obj
 0003:0000a9d0       $SG37482                   00000001800659d0     c2_flightControlSystem.obj
 0003:0000a9d8       $SG37483                   00000001800659d8     c2_flightControlSystem.obj
 0003:0000a9e4       $SG37484                   00000001800659e4     c2_flightControlSystem.obj
 0003:0000a9ec       $SG37495                   00000001800659ec     c2_flightControlSystem.obj
 0003:0000a9f0       $SG37496                   00000001800659f0     c2_flightControlSystem.obj
 0003:0000a9f4       $SG37497                   00000001800659f4     c2_flightControlSystem.obj
 0003:0000a9f8       $SG37498                   00000001800659f8     c2_flightControlSystem.obj
 0003:0000aa00       $SG37499                   0000000180065a00     c2_flightControlSystem.obj
 0003:0000aa0c       $SG37500                   0000000180065a0c     c2_flightControlSystem.obj
 0003:0000aa14       $SG38092                   0000000180065a14     c2_flightControlSystem.obj
 0003:0000aa18       ?c2_cv74@?1??c2_houghlines@@9@9 0000000180065a18     c2_flightControlSystem.obj
 0003:0000aa3c       $SG38093                   0000000180065a3c     c2_flightControlSystem.obj
 0003:0000aa40       ?c2_cv75@?1??c2_houghlines@@9@9 0000000180065a40     c2_flightControlSystem.obj
 0003:0000aa58       ?c2_cv76@?1??c2_houghlines@@9@9 0000000180065a58     c2_flightControlSystem.obj
 0003:0000aa7c       $SG38094                   0000000180065a7c     c2_flightControlSystem.obj
 0003:0000aa80       ?c2_cv77@?1??c2_houghlines@@9@9 0000000180065a80     c2_flightControlSystem.obj
 0003:0000aaa0       ?c2_cv78@?1??c2_houghlines@@9@9 0000000180065aa0     c2_flightControlSystem.obj
 0003:0000aab8       $SG38095                   0000000180065ab8     c2_flightControlSystem.obj
 0003:0000aac0       $SG38096                   0000000180065ac0     c2_flightControlSystem.obj
 0003:0000aacc       $SG38097                   0000000180065acc     c2_flightControlSystem.obj
 0003:0000aad4       $SG38108                   0000000180065ad4     c2_flightControlSystem.obj
 0003:0000aad8       $SG38109                   0000000180065ad8     c2_flightControlSystem.obj
 0003:0000aadc       $SG38110                   0000000180065adc     c2_flightControlSystem.obj
 0003:0000aae0       $SG38111                   0000000180065ae0     c2_flightControlSystem.obj
 0003:0000aae8       $SG38112                   0000000180065ae8     c2_flightControlSystem.obj
 0003:0000aaf4       $SG38113                   0000000180065af4     c2_flightControlSystem.obj
 0003:0000aafc       $SG38116                   0000000180065afc     c2_flightControlSystem.obj
 0003:0000ab00       $SG38117                   0000000180065b00     c2_flightControlSystem.obj
 0003:0000ab04       $SG38158                   0000000180065b04     c2_flightControlSystem.obj
 0003:0000ab08       $SG38118                   0000000180065b08     c2_flightControlSystem.obj
 0003:0000ab10       $SG38119                   0000000180065b10     c2_flightControlSystem.obj
 0003:0000ab1c       $SG38120                   0000000180065b1c     c2_flightControlSystem.obj
 0003:0000ab24       $SG38159                   0000000180065b24     c2_flightControlSystem.obj
 0003:0000ab2c       $SG38231                   0000000180065b2c     c2_flightControlSystem.obj
 0003:0000ab30       $SG38241                   0000000180065b30     c2_flightControlSystem.obj
 0003:0000ab34       $SG38454                   0000000180065b34     c2_flightControlSystem.obj
 0003:0000ab38       $SG38388                   0000000180065b38     c2_flightControlSystem.obj
 0003:0000ab40       $SG38389                   0000000180065b40     c2_flightControlSystem.obj
 0003:0000ab4c       $SG38390                   0000000180065b4c     c2_flightControlSystem.obj
 0003:0000ab54       $SG38455                   0000000180065b54     c2_flightControlSystem.obj
 0003:0000ab58       $SG38456                   0000000180065b58     c2_flightControlSystem.obj
 0003:0000ab60       $SG38457                   0000000180065b60     c2_flightControlSystem.obj
 0003:0000ab6c       $SG38458                   0000000180065b6c     c2_flightControlSystem.obj
 0003:0000ab74       $SG38464                   0000000180065b74     c2_flightControlSystem.obj
 0003:0000ab78       $SG38465                   0000000180065b78     c2_flightControlSystem.obj
 0003:0000ab7c       $SG38530                   0000000180065b7c     c2_flightControlSystem.obj
 0003:0000ab80       $SG38466                   0000000180065b80     c2_flightControlSystem.obj
 0003:0000ab88       $SG38467                   0000000180065b88     c2_flightControlSystem.obj
 0003:0000ab94       $SG38468                   0000000180065b94     c2_flightControlSystem.obj
 0003:0000ab9c       $SG38531                   0000000180065b9c     c2_flightControlSystem.obj
 0003:0000aba0       $SG38532                   0000000180065ba0     c2_flightControlSystem.obj
 0003:0000aba8       $SG38533                   0000000180065ba8     c2_flightControlSystem.obj
 0003:0000abb4       $SG38534                   0000000180065bb4     c2_flightControlSystem.obj
 0003:0000abbc       $SG38545                   0000000180065bbc     c2_flightControlSystem.obj
 0003:0000abc0       $SG38546                   0000000180065bc0     c2_flightControlSystem.obj
 0003:0000abc4       $SG39413                   0000000180065bc4     c2_flightControlSystem.obj
 0003:0000abc8       $SG38547                   0000000180065bc8     c2_flightControlSystem.obj
 0003:0000abd0       $SG38548                   0000000180065bd0     c2_flightControlSystem.obj
 0003:0000abdc       $SG38549                   0000000180065bdc     c2_flightControlSystem.obj
 0003:0000abe4       $SG39414                   0000000180065be4     c2_flightControlSystem.obj
 0003:0000abe8       ?c2_cv79@?1??c2_b_sortrows@@9@9 0000000180065be8     c2_flightControlSystem.obj
 0003:0000ac08       $SG39415                   0000000180065c08     c2_flightControlSystem.obj
 0003:0000ac10       $SG39416                   0000000180065c10     c2_flightControlSystem.obj
 0003:0000ac1c       $SG39417                   0000000180065c1c     c2_flightControlSystem.obj
 0003:0000ac24       $SG40776                   0000000180065c24     c2_flightControlSystem.obj
 0003:0000ac28       $SG40688                   0000000180065c28     c2_flightControlSystem.obj
 0003:0000ac5c       $SG40778                   0000000180065c5c     c2_flightControlSystem.obj
 0003:0000ac64       $SG40779                   0000000180065c64     c2_flightControlSystem.obj
 0003:0000ac68       $SG40689                   0000000180065c68     c2_flightControlSystem.obj
 0003:0000aca0       $SG40690                   0000000180065ca0     c2_flightControlSystem.obj
 0003:0000acd8       $SG40691                   0000000180065cd8     c2_flightControlSystem.obj
 0003:0000ad10       $SG40692                   0000000180065d10     c2_flightControlSystem.obj
 0003:0000ad50       $SG40693                   0000000180065d50     c2_flightControlSystem.obj
 0003:0000ad88       $SG40694                   0000000180065d88     c2_flightControlSystem.obj
 0003:0000adc0       $SG40695                   0000000180065dc0     c2_flightControlSystem.obj
 0003:0000adf8       $SG40696                   0000000180065df8     c2_flightControlSystem.obj
 0003:0000ae30       $SG40697                   0000000180065e30     c2_flightControlSystem.obj
 0003:0000ae68       $SG40709                   0000000180065e68     c2_flightControlSystem.obj
 0003:0000ae78       $SG40711                   0000000180065e78     c2_flightControlSystem.obj
 0003:0000ae88       $SG40713                   0000000180065e88     c2_flightControlSystem.obj
 0003:0000aea0       $SG40715                   0000000180065ea0     c2_flightControlSystem.obj
 0003:0000aeb8       $SG40717                   0000000180065eb8     c2_flightControlSystem.obj
 0003:0000aecc       $SG40718                   0000000180065ecc     c2_flightControlSystem.obj
 0003:0000aed8       $SG40719                   0000000180065ed8     c2_flightControlSystem.obj
 0003:0000aef0       $SG40722                   0000000180065ef0     c2_flightControlSystem.obj
 0003:0000af00       $SG40735                   0000000180065f00     c2_flightControlSystem.obj
 0003:0000af10       $SG40737                   0000000180065f10     c2_flightControlSystem.obj
 0003:0000af18       $SG40777                   0000000180065f18     c2_flightControlSystem.obj
 0003:0000af20       $SG40738                   0000000180065f20     c2_flightControlSystem.obj
 0003:0000b048       $SG40780                   0000000180066048     c2_flightControlSystem.obj
 0003:0000b050       $SG40781                   0000000180066050     c2_flightControlSystem.obj
 0003:0000b058       $SG40782                   0000000180066058     c2_flightControlSystem.obj
 0003:0000b068       $SG40890                   0000000180066068     c2_flightControlSystem.obj
 0003:0000b078       $SG40891                   0000000180066078     c2_flightControlSystem.obj
 0003:0000b090       $SG40880                   0000000180066090     c2_flightControlSystem.obj
 0003:0000b528       $SG40916                   0000000180066528     c2_flightControlSystem.obj
 0003:0000b560       $SG40931                   0000000180066560     c2_flightControlSystem.obj
 0003:0000b5d8       $SG25968                   00000001800665d8     flightControlSystem_sfun_registry.obj
 0003:0000b5f8       $SG25970                   00000001800665f8     flightControlSystem_sfun_registry.obj
 0003:0000b60c       $SG27928                   000000018006660c     flightControlSystem_sfun_registry.obj
 0003:0000b610       $SG26006                   0000000180066610     flightControlSystem_sfun_registry.obj
 0003:0000b628       $SG26008                   0000000180066628     flightControlSystem_sfun_registry.obj
 0003:0000b63c       $SG28006                   000000018006663c     flightControlSystem_sfun_registry.obj
 0003:0000b640       $SG26044                   0000000180066640     flightControlSystem_sfun_registry.obj
 0003:0000b658       $SG26046                   0000000180066658     flightControlSystem_sfun_registry.obj
 0003:0000b670       $SG26082                   0000000180066670     flightControlSystem_sfun_registry.obj
 0003:0000b690       $SG26084                   0000000180066690     flightControlSystem_sfun_registry.obj
 0003:0000b6a8       $SG26120                   00000001800666a8     flightControlSystem_sfun_registry.obj
 0003:0000b6c8       $SG26122                   00000001800666c8     flightControlSystem_sfun_registry.obj
 0003:0000b6e0       $SG26142                   00000001800666e0     flightControlSystem_sfun_registry.obj
 0003:0000b6f0       $SG26182                   00000001800666f0     flightControlSystem_sfun_registry.obj
 0003:0000b708       $SG26213                   0000000180066708     flightControlSystem_sfun_registry.obj
 0003:0000b71c       $SG26298                   000000018006671c     flightControlSystem_sfun_registry.obj
 0003:0000b728       $SG26299                   0000000180066728     flightControlSystem_sfun_registry.obj
 0003:0000b73c       $SG26304                   000000018006673c     flightControlSystem_sfun_registry.obj
 0003:0000b748       $SG26305                   0000000180066748     flightControlSystem_sfun_registry.obj
 0003:0000b768       $SG26446                   0000000180066768     flightControlSystem_sfun_registry.obj
 0003:0000b790       _sfcnName                  0000000180066790     flightControlSystem_sfun_registry.obj
 0003:0000b7b0       $SG26463                   00000001800667b0     flightControlSystem_sfun_registry.obj
 0003:0000b828       $SG26782                   0000000180066828     flightControlSystem_sfun_registry.obj
 0003:0000b830       $SG26783                   0000000180066830     flightControlSystem_sfun_registry.obj
 0003:0000b838       $SG26797                   0000000180066838     flightControlSystem_sfun_registry.obj
 0003:0000b848       $SG26987                   0000000180066848     flightControlSystem_sfun_registry.obj
 0003:0000b888       $SG26988                   0000000180066888     flightControlSystem_sfun_registry.obj
 0003:0000b890       $SG26989                   0000000180066890     flightControlSystem_sfun_registry.obj
 0003:0000b898       $SG26994                   0000000180066898     flightControlSystem_sfun_registry.obj
 0003:0000b8a0       $SG26993                   00000001800668a0     flightControlSystem_sfun_registry.obj
 0003:0000b8e8       $SG26995                   00000001800668e8     flightControlSystem_sfun_registry.obj
 0003:0000b8f0       $SG26996                   00000001800668f0     flightControlSystem_sfun_registry.obj
 0003:0000b948       $SG26997                   0000000180066948     flightControlSystem_sfun_registry.obj
 0003:0000b950       $SG26998                   0000000180066950     flightControlSystem_sfun_registry.obj
 0003:0000b958       $SG27020                   0000000180066958     flightControlSystem_sfun_registry.obj
 0003:0000b998       $SG27021                   0000000180066998     flightControlSystem_sfun_registry.obj
 0003:0000b9a0       $SG27022                   00000001800669a0     flightControlSystem_sfun_registry.obj
 0003:0000b9a8       $SG27027                   00000001800669a8     flightControlSystem_sfun_registry.obj
 0003:0000b9b0       $SG27026                   00000001800669b0     flightControlSystem_sfun_registry.obj
 0003:0000b9f8       $SG27028                   00000001800669f8     flightControlSystem_sfun_registry.obj
 0003:0000ba00       $SG27029                   0000000180066a00     flightControlSystem_sfun_registry.obj
 0003:0000ba58       $SG27030                   0000000180066a58     flightControlSystem_sfun_registry.obj
 0003:0000ba60       $SG27031                   0000000180066a60     flightControlSystem_sfun_registry.obj
 0003:0000ba68       $SG27047                   0000000180066a68     flightControlSystem_sfun_registry.obj
 0003:0000ba70       $SG27046                   0000000180066a70     flightControlSystem_sfun_registry.obj
 0003:0000bac0       $SG27048                   0000000180066ac0     flightControlSystem_sfun_registry.obj
 0003:0000bac8       $SG27061                   0000000180066ac8     flightControlSystem_sfun_registry.obj
 0003:0000bad0       $SG27060                   0000000180066ad0     flightControlSystem_sfun_registry.obj
 0003:0000bb30       $SG27062                   0000000180066b30     flightControlSystem_sfun_registry.obj
 0003:0000bb38       $SG27075                   0000000180066b38     flightControlSystem_sfun_registry.obj
 0003:0000bb40       $SG27074                   0000000180066b40     flightControlSystem_sfun_registry.obj
 0003:0000bba0       $SG27076                   0000000180066ba0     flightControlSystem_sfun_registry.obj
 0003:0000bba8       $SG27913                   0000000180066ba8     flightControlSystem_sfun_registry.obj
 0003:0000bbc0       $SG27291                   0000000180066bc0     flightControlSystem_sfun_registry.obj
 0003:0000bc38       $SG27980                   0000000180066c38     flightControlSystem_sfun_registry.obj
 0003:0000bc40       $SG27294                   0000000180066c40     flightControlSystem_sfun_registry.obj
 0003:0000bcb4       $SG27981                   0000000180066cb4     flightControlSystem_sfun_registry.obj
 0003:0000bcc0       $SG27299                   0000000180066cc0     flightControlSystem_sfun_registry.obj
 0003:0000bd38       $SG27982                   0000000180066d38     flightControlSystem_sfun_registry.obj
 0003:0000bd40       $SG27307                   0000000180066d40     flightControlSystem_sfun_registry.obj
 0003:0000bdb0       $SG27582                   0000000180066db0     flightControlSystem_sfun_registry.obj
 0003:0000be28       $SG27988                   0000000180066e28     flightControlSystem_sfun_registry.obj
 0003:0000be30       $SG27587                   0000000180066e30     flightControlSystem_sfun_registry.obj
 0003:0000bea8       $SG27991                   0000000180066ea8     flightControlSystem_sfun_registry.obj
 0003:0000beb0       $SG27925                   0000000180066eb0     flightControlSystem_sfun_registry.obj
 0003:0000bf28       $SG27994                   0000000180066f28     flightControlSystem_sfun_registry.obj
 0003:0000bf30       $SG27983                   0000000180066f30     flightControlSystem_sfun_registry.obj
 0003:0000bfa8       $SG28000                   0000000180066fa8     flightControlSystem_sfun_registry.obj
 0003:0000bfb0       $SG27985                   0000000180066fb0     flightControlSystem_sfun_registry.obj
 0003:0000c030       $SG27995                   0000000180067030     flightControlSystem_sfun_registry.obj
 0003:0000c0b0       $SG27996                   00000001800670b0     flightControlSystem_sfun_registry.obj
 0003:0000c0c0       $SG27998                   00000001800670c0     flightControlSystem_sfun_registry.obj
 0003:0000c0cc       $SG28002                   00000001800670cc     flightControlSystem_sfun_registry.obj
 0003:0000c0d8       $SG28004                   00000001800670d8     flightControlSystem_sfun_registry.obj
 0003:0000c0e8       $SG28114                   00000001800670e8     flightControlSystem_sfun_registry.obj
 0003:0000c118       $SG28115                   0000000180067118     flightControlSystem_sfun_registry.obj
 0003:0000c120       $SG28009                   0000000180067120     flightControlSystem_sfun_registry.obj
 0003:0000c208       $SG28116                   0000000180067208     flightControlSystem_sfun_registry.obj
 0003:0000c210       $SG28118                   0000000180067210     flightControlSystem_sfun_registry.obj
 0003:0000c248       $SG28119                   0000000180067248     flightControlSystem_sfun_registry.obj
 0003:0000c250       $SG28120                   0000000180067250     flightControlSystem_sfun_registry.obj
 0003:0000c258       $SG28123                   0000000180067258     flightControlSystem_sfun_registry.obj
 0003:0000c290       $SG28124                   0000000180067290     flightControlSystem_sfun_registry.obj
 0003:0000c298       $SG28125                   0000000180067298     flightControlSystem_sfun_registry.obj
 0003:0000c2a0       $SG28127                   00000001800672a0     flightControlSystem_sfun_registry.obj
 0003:0000c2d8       $SG28128                   00000001800672d8     flightControlSystem_sfun_registry.obj
 0003:0000c2e0       $SG28129                   00000001800672e0     flightControlSystem_sfun_registry.obj
 0003:0000c2e8       $SG28131                   00000001800672e8     flightControlSystem_sfun_registry.obj
 0003:0000c320       $SG28132                   0000000180067320     flightControlSystem_sfun_registry.obj
 0003:0000c328       $SG28133                   0000000180067328     flightControlSystem_sfun_registry.obj
 0003:0000c330       $SG28136                   0000000180067330     flightControlSystem_sfun_registry.obj
 0003:0000c338       $SG28138                   0000000180067338     flightControlSystem_sfun_registry.obj
 0003:0000c350       $SG28139                   0000000180067350     flightControlSystem_sfun_registry.obj
 0003:0000c388       $SG28140                   0000000180067388     flightControlSystem_sfun_registry.obj
 0003:0000c390       $SG28141                   0000000180067390     flightControlSystem_sfun_registry.obj
 0003:0000c398       $SG28301                   0000000180067398     flightControlSystem_sfun_registry.obj
 0003:0000c3b8       $SG28306                   00000001800673b8     flightControlSystem_sfun_registry.obj
 0003:0000c3d0       $SG28302                   00000001800673d0     flightControlSystem_sfun_registry.obj
 0003:0000c460       $SG28307                   0000000180067460     flightControlSystem_sfun_registry.obj
 0003:0000c4f0       $SG28311                   00000001800674f0     flightControlSystem_sfun_registry.obj
 0003:0000c508       $SG28326                   0000000180067508     flightControlSystem_sfun_registry.obj
 0003:0000c528       $SG28331                   0000000180067528     flightControlSystem_sfun_registry.obj
 0003:0000c550       $SG28312                   0000000180067550     flightControlSystem_sfun_registry.obj
 0003:0000c5e0       $SG28316                   00000001800675e0     flightControlSystem_sfun_registry.obj
 0003:0000c600       $SG28317                   0000000180067600     flightControlSystem_sfun_registry.obj
 0003:0000c690       $SG28321                   0000000180067690     flightControlSystem_sfun_registry.obj
 0003:0000c6b0       $SG28322                   00000001800676b0     flightControlSystem_sfun_registry.obj
 0003:0000c740       $SG28327                   0000000180067740     flightControlSystem_sfun_registry.obj
 0003:0000c7d0       $SG28332                   00000001800677d0     flightControlSystem_sfun_registry.obj
 0003:0000c860       $SG28336                   0000000180067860     flightControlSystem_sfun_registry.obj
 0003:0000c888       $SG28351                   0000000180067888     flightControlSystem_sfun_registry.obj
 0003:0000c8a0       $SG28337                   00000001800678a0     flightControlSystem_sfun_registry.obj
 0003:0000c930       $SG28341                   0000000180067930     flightControlSystem_sfun_registry.obj
 0003:0000c950       $SG28342                   0000000180067950     flightControlSystem_sfun_registry.obj
 0003:0000c9e0       $SG28346                   00000001800679e0     flightControlSystem_sfun_registry.obj
 0003:0000ca00       $SG28347                   0000000180067a00     flightControlSystem_sfun_registry.obj
 0003:0000ca90       $SG28352                   0000000180067a90     flightControlSystem_sfun_registry.obj
 0003:0000cb20       $SG28356                   0000000180067b20     flightControlSystem_sfun_registry.obj
 0003:0000cb40       $SG28357                   0000000180067b40     flightControlSystem_sfun_registry.obj
 0003:0000cbd0       $SG28361                   0000000180067bd0     flightControlSystem_sfun_registry.obj
 0003:0000cbf0       $SG28362                   0000000180067bf0     flightControlSystem_sfun_registry.obj
 0003:0000cc80       $SG28366                   0000000180067c80     flightControlSystem_sfun_registry.obj
 0003:0000cca0       $SG28367                   0000000180067ca0     flightControlSystem_sfun_registry.obj
 0003:0000cd30       $SG28371                   0000000180067d30     flightControlSystem_sfun_registry.obj
 0003:0000cd50       $SG28372                   0000000180067d50     flightControlSystem_sfun_registry.obj
 0003:0000cde0       $SG28376                   0000000180067de0     flightControlSystem_sfun_registry.obj
 0003:0000ce00       $SG28377                   0000000180067e00     flightControlSystem_sfun_registry.obj
 0003:0000ce90       $SG28381                   0000000180067e90     flightControlSystem_sfun_registry.obj
 0003:0000ceb0       $SG28382                   0000000180067eb0     flightControlSystem_sfun_registry.obj
 0003:0000cf40       $SG28387                   0000000180067f40     flightControlSystem_sfun_registry.obj
 0003:0000cf54       $SG28392                   0000000180067f54     flightControlSystem_sfun_registry.obj
 0003:0000cf60       $SG28388                   0000000180067f60     flightControlSystem_sfun_registry.obj
 0003:0000cff0       $SG28393                   0000000180067ff0     flightControlSystem_sfun_registry.obj
 0003:0000d080       $SG28397                   0000000180068080     flightControlSystem_sfun_registry.obj
 0003:0000d098       $SG28417                   0000000180068098     flightControlSystem_sfun_registry.obj
 0003:0000d0b0       $SG28398                   00000001800680b0     flightControlSystem_sfun_registry.obj
 0003:0000d140       $SG28402                   0000000180068140     flightControlSystem_sfun_registry.obj
 0003:0000d150       $SG28403                   0000000180068150     flightControlSystem_sfun_registry.obj
 0003:0000d1e0       $SG28407                   00000001800681e0     flightControlSystem_sfun_registry.obj
 0003:0000d1f0       $SG28408                   00000001800681f0     flightControlSystem_sfun_registry.obj
 0003:0000d280       $SG28412                   0000000180068280     flightControlSystem_sfun_registry.obj
 0003:0000d290       $SG28413                   0000000180068290     flightControlSystem_sfun_registry.obj
 0003:0000d320       $SG28418                   0000000180068320     flightControlSystem_sfun_registry.obj
 0003:0000d3b0       $SG28422                   00000001800683b0     flightControlSystem_sfun_registry.obj
 0003:0000d3c8       $SG28427                   00000001800683c8     flightControlSystem_sfun_registry.obj
 0003:0000d3d8       $SG28499                   00000001800683d8     flightControlSystem_sfun_registry.obj
 0003:0000d3f0       $SG28423                   00000001800683f0     flightControlSystem_sfun_registry.obj
 0003:0000d480       $SG28428                   0000000180068480     flightControlSystem_sfun_registry.obj
 0003:0000d510       $SG28436                   0000000180068510     flightControlSystem_sfun_registry.obj
 0003:0000d520       $SG28437                   0000000180068520     flightControlSystem_sfun_registry.obj
 0003:0000d5b0       $SG28441                   00000001800685b0     flightControlSystem_sfun_registry.obj
 0003:0000d5c0       $SG28442                   00000001800685c0     flightControlSystem_sfun_registry.obj
 0003:0000d650       $SG28446                   0000000180068650     flightControlSystem_sfun_registry.obj
 0003:0000d660       $SG28447                   0000000180068660     flightControlSystem_sfun_registry.obj
 0003:0000d6f0       $SG28452                   00000001800686f0     flightControlSystem_sfun_registry.obj
 0003:0000d700       $SG28453                   0000000180068700     flightControlSystem_sfun_registry.obj
 0003:0000d790       $SG28457                   0000000180068790     flightControlSystem_sfun_registry.obj
 0003:0000d810       $SG28487                   0000000180068810     flightControlSystem_sfun_registry.obj
 0003:0000d928       $SG28509                   0000000180068928     flightControlSystem_sfun_registry.obj
 0003:0000d938       $SG28521                   0000000180068938     flightControlSystem_sfun_registry.obj
 0003:0000d948       $SG28531                   0000000180068948     flightControlSystem_sfun_registry.obj
 0003:0000d958       $SG28543                   0000000180068958     flightControlSystem_sfun_registry.obj
 0003:0000d968       $SG28553                   0000000180068968     flightControlSystem_sfun_registry.obj
 0003:0000d978       $SG28563                   0000000180068978     flightControlSystem_sfun_registry.obj
 0003:0000d9f0       sRtwOptimizationInfoStruct 00000001800689f0     flightControlSystem_sfun.obj
 0003:0000d9f8       sOptimizationInfoFlags     00000001800689f8     flightControlSystem_sfun.obj
 0003:0000da00       _sfTime_                   0000000180068a00     c2_flightControlSystem.obj
 0003:0000da08       $SG28647                   0000000180068a08     c2_flightControlSystem.obj
 0003:0000da09       $SG36647                   0000000180068a09     c2_flightControlSystem.obj
 0003:0000da0a       $SG36677                   0000000180068a0a     c2_flightControlSystem.obj
 0003:0000da0b       $SG38121                   0000000180068a0b     c2_flightControlSystem.obj
 0003:0000da0c       $SG38138                   0000000180068a0c     c2_flightControlSystem.obj
 0003:0000da0d       $SG38154                   0000000180068a0d     c2_flightControlSystem.obj
 0003:0000da0e       $SG38155                   0000000180068a0e     c2_flightControlSystem.obj
 0003:0000da0f       $SG40720                   0000000180068a0f     c2_flightControlSystem.obj
 0003:0000da10       ?c2_dc0@?1??c2_imfindcircles@@9@9 0000000180068a10     c2_flightControlSystem.obj
 0003:0000da20       $SG40721                   0000000180068a20     c2_flightControlSystem.obj
 0003:0000da30       sfGlobalMdlStartCallCounts 0000000180068a30     flightControlSystem_sfun_registry.obj
 0003:0000da34       $SG27976                   0000000180068a34     flightControlSystem_sfun_registry.obj
 0003:0000da40       GS_ExceptionRecord         0000000180068a40     MSVCRT:gs_report.obj
 0003:0000dae0       GS_ContextRecord           0000000180068ae0     MSVCRT:gs_report.obj
 0003:0000dfb0       ?__proc_attached@@3HA      0000000180068fb0     MSVCRT:dll_dllmain.obj
 0003:0000dfe4       ?module_local_atexit_table_initialized@@3_NA 0000000180068fe4     MSVCRT:utility.obj
 0003:0000dff0       ?module_local_atexit_table@@3U_onexit_table_t@@A 0000000180068ff0     MSVCRT:utility.obj
 0003:0000e008       ?module_local_at_quick_exit_table@@3U_onexit_table_t@@A 0000000180069008     MSVCRT:utility.obj
 0003:0000e020       ?is_initialized_as_dll@@3_NA 0000000180069020     MSVCRT:utility.obj
 0004:00000000       $pdata$load_flightControlSystem_optimization_info 000000018006a000     flightControlSystem_sfun.obj
 0004:0000000c       $pdata$unload_flightControlSystem_optimization_info 000000018006a00c     flightControlSystem_sfun.obj
 0004:00000018       $pdata$sf_flightControlSystem_method_dispatcher 000000018006a018     flightControlSystem_sfun.obj
 0004:00000024       $pdata$sf_flightControlSystem_process_check_sum_call 000000018006a024     flightControlSystem_sfun.obj
 0004:00000030       $pdata$sf_flightControlSystem_get_eml_resolved_functions_info 000000018006a030     flightControlSystem_sfun.obj
 0004:0000003c       $pdata$sf_flightControlSystem_third_party_uses_info 000000018006a03c     flightControlSystem_sfun.obj
 0004:00000048       $pdata$sf_flightControlSystem_jit_fallback_info 000000018006a048     flightControlSystem_sfun.obj
 0004:00000054       $pdata$sf_flightControlSystem_get_post_codegen_info 000000018006a054     flightControlSystem_sfun.obj
 0004:00000060       $pdata$sf_flightControlSystem_updateBuildInfo_args_info 000000018006a060     flightControlSystem_sfun.obj
 0004:0000006c       $pdata$flightControlSystem_debug_initialize 000000018006a06c     flightControlSystem_sfun.obj
 0004:00000078       $pdata$sf_c2_flightControlSystem_get_eml_resolved_functions_info 000000018006a078     c2_flightControlSystem.obj
 0004:00000084       $pdata$sf_c2_flightControlSystem_get_check_sum 000000018006a084     c2_flightControlSystem.obj
 0004:00000090       $pdata$c2_flightControlSystem_method_dispatcher 000000018006a090     c2_flightControlSystem.obj
 0004:0000009c       $pdata$chart_debug_initialization 000000018006a09c     c2_flightControlSystem.obj
 0004:000000a8       $pdata$chart_debug_initialize_data_addresses 000000018006a0a8     c2_flightControlSystem.obj
 0004:000000b4       $pdata$initialize_c2_flightControlSystem 000000018006a0b4     c2_flightControlSystem.obj
 0004:000000c0       $pdata$enable_c2_flightControlSystem 000000018006a0c0     c2_flightControlSystem.obj
 0004:000000cc       $pdata$disable_c2_flightControlSystem 000000018006a0cc     c2_flightControlSystem.obj
 0004:000000d8       $pdata$get_sim_state_c2_flightControlSystem 000000018006a0d8     c2_flightControlSystem.obj
 0004:000000e4       $pdata$set_sim_state_c2_flightControlSystem 000000018006a0e4     c2_flightControlSystem.obj
 0004:000000f0       $pdata$finalize_c2_flightControlSystem 000000018006a0f0     c2_flightControlSystem.obj
 0004:000000fc       $pdata$sf_gateway_c2_flightControlSystem 000000018006a0fc     c2_flightControlSystem.obj
 0004:00000108       $pdata$mdl_start_c2_flightControlSystem 000000018006a108     c2_flightControlSystem.obj
 0004:00000114       $pdata$c2_chartstep_c2_flightControlSystem 000000018006a114     c2_flightControlSystem.obj
 0004:00000120       $pdata$c2_sf_marshallOut   000000018006a120     c2_flightControlSystem.obj
 0004:0000012c       $pdata$c2_emlrt_marshallIn 000000018006a12c     c2_flightControlSystem.obj
 0004:00000138       $pdata$c2_sf_marshallIn    000000018006a138     c2_flightControlSystem.obj
 0004:00000144       $pdata$c2_b_sf_marshallOut 000000018006a144     c2_flightControlSystem.obj
 0004:00000150       $pdata$c2_b_emlrt_marshallIn 000000018006a150     c2_flightControlSystem.obj
 0004:0000015c       $pdata$c2_b_sf_marshallIn  000000018006a15c     c2_flightControlSystem.obj
 0004:00000168       $pdata$c2_c_sf_marshallOut 000000018006a168     c2_flightControlSystem.obj
 0004:00000174       $pdata$c2_c_emlrt_marshallIn 000000018006a174     c2_flightControlSystem.obj
 0004:00000180       $pdata$c2_c_sf_marshallIn  000000018006a180     c2_flightControlSystem.obj
 0004:0000018c       $pdata$c2_d_sf_marshallOut 000000018006a18c     c2_flightControlSystem.obj
 0004:00000198       $pdata$c2_e_sf_marshallOut 000000018006a198     c2_flightControlSystem.obj
 0004:000001a4       $pdata$c2_f_sf_marshallOut 000000018006a1a4     c2_flightControlSystem.obj
 0004:000001b0       $pdata$c2_d_emlrt_marshallIn 000000018006a1b0     c2_flightControlSystem.obj
 0004:000001bc       $pdata$c2_d_sf_marshallIn  000000018006a1bc     c2_flightControlSystem.obj
 0004:000001c8       $pdata$c2_g_sf_marshallOut 000000018006a1c8     c2_flightControlSystem.obj
 0004:000001d4       $pdata$c2_e_emlrt_marshallIn 000000018006a1d4     c2_flightControlSystem.obj
 0004:000001e0       $pdata$c2_f_emlrt_marshallIn 000000018006a1e0     c2_flightControlSystem.obj
 0004:000001ec       $pdata$c2_g_emlrt_marshallIn 000000018006a1ec     c2_flightControlSystem.obj
 0004:000001f8       $pdata$c2_e_sf_marshallIn  000000018006a1f8     c2_flightControlSystem.obj
 0004:00000204       $pdata$c2_h_sf_marshallOut 000000018006a204     c2_flightControlSystem.obj
 0004:00000210       $pdata$c2_h_emlrt_marshallIn 000000018006a210     c2_flightControlSystem.obj
 0004:0000021c       $pdata$c2_f_sf_marshallIn  000000018006a21c     c2_flightControlSystem.obj
 0004:00000228       $pdata$c2_i_sf_marshallOut 000000018006a228     c2_flightControlSystem.obj
 0004:00000234       $pdata$c2_imhist           000000018006a234     c2_flightControlSystem.obj
 0004:00000240       $pdata$c2_validateattributes 000000018006a240     c2_flightControlSystem.obj
 0004:0000024c       $pdata$c2_isfinite         000000018006a24c     c2_flightControlSystem.obj
 0004:00000258       $pdata$c2_edge             000000018006a258     c2_flightControlSystem.obj
 0004:00000264       $pdata$c2_imfilter         000000018006a264     c2_flightControlSystem.obj
 0004:00000270       $pdata$c2_padImage         000000018006a270     c2_flightControlSystem.obj
 0004:0000027c       $pdata$c2_b_imfilter       000000018006a27c     c2_flightControlSystem.obj
 0004:00000288       $pdata$c2_b_padImage       000000018006a288     c2_flightControlSystem.obj
 0004:00000294       $pdata$c2_c_imfilter       000000018006a294     c2_flightControlSystem.obj
 0004:000002a0       $pdata$c2_d_imfilter       000000018006a2a0     c2_flightControlSystem.obj
 0004:000002ac       $pdata$c2_hypot            000000018006a2ac     c2_flightControlSystem.obj
 0004:000002b8       $pdata$c2_check_forloop_overflow_error 000000018006a2b8     c2_flightControlSystem.obj
 0004:000002c4       $pdata$c2_warning          000000018006a2c4     c2_flightControlSystem.obj
 0004:000002d0       $pdata$c2_eml_find         000000018006a2d0     c2_flightControlSystem.obj
 0004:000002dc       $pdata$c2_indexShapeCheck  000000018006a2dc     c2_flightControlSystem.obj
 0004:000002e8       $pdata$c2_b_warning        000000018006a2e8     c2_flightControlSystem.obj
 0004:000002f4       $pdata$c2_validate_inputs  000000018006a2f4     c2_flightControlSystem.obj
 0004:00000300       $pdata$c2_make_bitarray    000000018006a300     c2_flightControlSystem.obj
 0004:0000030c       $pdata$c2_num_true         000000018006a30c     c2_flightControlSystem.obj
 0004:00000318       $pdata$c2_allinrange       000000018006a318     c2_flightControlSystem.obj
 0004:00000324       $pdata$c2_imfill           000000018006a324     c2_flightControlSystem.obj
 0004:00000330       $pdata$c2_isequal          000000018006a330     c2_flightControlSystem.obj
 0004:0000033c       $pdata$c2_checkLocations   000000018006a33c     c2_flightControlSystem.obj
 0004:00000348       $pdata$c2_b_validateattributes 000000018006a348     c2_flightControlSystem.obj
 0004:00000354       $pdata$c2_any              000000018006a354     c2_flightControlSystem.obj
 0004:00000360       $pdata$c2_c_warning        000000018006a360     c2_flightControlSystem.obj
 0004:0000036c       $pdata$c2_b_isequal        000000018006a36c     c2_flightControlSystem.obj
 0004:00000378       $pdata$c2_all              000000018006a378     c2_flightControlSystem.obj
 0004:00000384       $pdata$c2_b_all            000000018006a384     c2_flightControlSystem.obj
 0004:00000390       $pdata$c2_c_padImage       000000018006a390     c2_flightControlSystem.obj
 0004:0000039c       $pdata$c2_e_imfilter       000000018006a39c     c2_flightControlSystem.obj
 0004:000003a8       $pdata$c2_d_padImage       000000018006a3a8     c2_flightControlSystem.obj
 0004:000003b4       $pdata$c2_f_imfilter       000000018006a3b4     c2_flightControlSystem.obj
 0004:000003c0       $pdata$c2_b_isfinite       000000018006a3c0     c2_flightControlSystem.obj
 0004:000003cc       $pdata$c2_imfindcircles    000000018006a3cc     c2_flightControlSystem.obj
 0004:000003d8       $pdata$c2_chaccum          000000018006a3d8     c2_flightControlSystem.obj
 0004:000003e4       $pdata$c2_multithresh      000000018006a3e4     c2_flightControlSystem.obj
 0004:000003f0       $pdata$c2_getpdf           000000018006a3f0     c2_flightControlSystem.obj
 0004:000003fc       $pdata$c2_im2uint8         000000018006a3fc     c2_flightControlSystem.obj
 0004:00000408       $pdata$c2_b_imhist         000000018006a408     c2_flightControlSystem.obj
 0004:00000414       $pdata$c2_sum              000000018006a414     c2_flightControlSystem.obj
 0004:00000420       $pdata$c2_d_warning        000000018006a420     c2_flightControlSystem.obj
 0004:0000042c       $pdata$c2_calcFullObjCriteriaMatrix 000000018006a42c     c2_flightControlSystem.obj
 0004:00000438       $pdata$c2_sortIdx          000000018006a438     c2_flightControlSystem.obj
 0004:00000444       $pdata$c2_sortLE           000000018006a444     c2_flightControlSystem.obj
 0004:00000450       $pdata$c2_count_nonfinites 000000018006a450     c2_flightControlSystem.obj
 0004:0000045c       $pdata$c2_checkForDegenerateInput 000000018006a45c     c2_flightControlSystem.obj
 0004:00000468       $pdata$c2_e_warning        000000018006a468     c2_flightControlSystem.obj
 0004:00000474       $pdata$c2_getDegenerateThresholds 000000018006a474     c2_flightControlSystem.obj
 0004:00000480       $pdata$c2_abs              000000018006a480     c2_flightControlSystem.obj
 0004:0000048c       $pdata$c2_eps              000000018006a48c     c2_flightControlSystem.obj
 0004:00000498       $pdata$c2_chcenters        000000018006a498     c2_flightControlSystem.obj
 0004:000004a4       $pdata$c2_medfilt2         000000018006a4a4     c2_flightControlSystem.obj
 0004:000004b0       $pdata$c2_padarray         000000018006a4b0     c2_flightControlSystem.obj
 0004:000004bc       $pdata$c2_regionprops      000000018006a4bc     c2_flightControlSystem.obj
 0004:000004c8       $pdata$c2_bwconncomp       000000018006a4c8     c2_flightControlSystem.obj
 0004:000004d4       $pdata$c2_assertValidSizeArg 000000018006a4d4     c2_flightControlSystem.obj
 0004:000004e0       $pdata$c2_b_allinrange     000000018006a4e0     c2_flightControlSystem.obj
 0004:000004ec       $pdata$c2_b_sum            000000018006a4ec     c2_flightControlSystem.obj
 0004:000004f8       $pdata$c2_c_all            000000018006a4f8     c2_flightControlSystem.obj
 0004:00000504       $pdata$c2_houghpeaks       000000018006a504     c2_flightControlSystem.obj
 0004:00000510       $pdata$c2_c_validateattributes 000000018006a510     c2_flightControlSystem.obj
 0004:0000051c       $pdata$c2_diff             000000018006a51c     c2_flightControlSystem.obj
 0004:00000528       $pdata$c2_houghlines       000000018006a528     c2_flightControlSystem.obj
 0004:00000534       $pdata$c2_b_sortLE         000000018006a534     c2_flightControlSystem.obj
 0004:00000540       $pdata$c2_emlrt_marshallOut 000000018006a540     c2_flightControlSystem.obj
 0004:0000054c       $pdata$c2_b_emlrt_marshallOut 000000018006a54c     c2_flightControlSystem.obj
 0004:00000558       $pdata$c2_j_emlrt_marshallIn 000000018006a558     c2_flightControlSystem.obj
 0004:00000564       $pdata$c2_k_emlrt_marshallIn 000000018006a564     c2_flightControlSystem.obj
 0004:00000570       $pdata$c2_b_round          000000018006a570     c2_flightControlSystem.obj
 0004:0000057c       $pdata$c2_d_nullAssignment 000000018006a57c     c2_flightControlSystem.obj
 0004:00000588       $pdata$c2_e_nullAssignment 000000018006a588     c2_flightControlSystem.obj
 0004:00000594       $pdata$c2_f_nullAssignment 000000018006a594     c2_flightControlSystem.obj
 0004:000005a0       $pdata$c2_c_sort           000000018006a5a0     c2_flightControlSystem.obj
 0004:000005ac       $pdata$c2_b_merge_pow2_block 000000018006a5ac     c2_flightControlSystem.obj
 0004:000005b8       $pdata$c2_c_merge_block    000000018006a5b8     c2_flightControlSystem.obj
 0004:000005c4       $pdata$c2_c_merge          000000018006a5c4     c2_flightControlSystem.obj
 0004:000005d0       $pdata$c2_d_sort           000000018006a5d0     c2_flightControlSystem.obj
 0004:000005dc       $pdata$c2_d_merge_block    000000018006a5dc     c2_flightControlSystem.obj
 0004:000005e8       $pdata$c2_d_merge          000000018006a5e8     c2_flightControlSystem.obj
 0004:000005f4       $pdata$c2_b_sortrows       000000018006a5f4     c2_flightControlSystem.obj
 0004:00000600       $pdata$c2_emxEnsureCapacity_real_T 000000018006a600     c2_flightControlSystem.obj
 0004:0000060c       $pdata$c2_emxEnsureCapacity_skoeQIuVNKJRH 000000018006a60c     c2_flightControlSystem.obj
 0004:00000618       $pdata$c2_emxInit_real_T   000000018006a618     c2_flightControlSystem.obj
 0004:00000624       $pdata$c2_emxInit_skoeQIuVNKJRHNtBIlOCZhD 000000018006a624     c2_flightControlSystem.obj
 0004:00000630       $pdata$c2_emxFree_real_T   000000018006a630     c2_flightControlSystem.obj
 0004:0000063c       $pdata$c2_emxFree_skoeQIuVNKJRHNtBIlOCZhD 000000018006a63c     c2_flightControlSystem.obj
 0004:00000648       $pdata$c2_emxEnsureCapacity_real_T1 000000018006a648     c2_flightControlSystem.obj
 0004:00000654       $pdata$c2_emxEnsureCapacity_int32_T 000000018006a654     c2_flightControlSystem.obj
 0004:00000660       $pdata$c2_emxInit_int32_T  000000018006a660     c2_flightControlSystem.obj
 0004:0000066c       $pdata$c2_emxInit_real_T1  000000018006a66c     c2_flightControlSystem.obj
 0004:00000678       $pdata$c2_emxFree_int32_T  000000018006a678     c2_flightControlSystem.obj
 0004:00000684       $pdata$c2_emxEnsureCapacity_boolean_T 000000018006a684     c2_flightControlSystem.obj
 0004:00000690       $pdata$c2_emxEnsureCapacity_boolean_T1 000000018006a690     c2_flightControlSystem.obj
 0004:0000069c       $pdata$c2_emxEnsureCapacity_creal_T 000000018006a69c     c2_flightControlSystem.obj
 0004:000006a8       $pdata$c2_emxInit_boolean_T 000000018006a6a8     c2_flightControlSystem.obj
 0004:000006b4       $pdata$c2_emxInit_creal_T  000000018006a6b4     c2_flightControlSystem.obj
 0004:000006c0       $pdata$c2_emxInit_boolean_T1 000000018006a6c0     c2_flightControlSystem.obj
 0004:000006cc       $pdata$c2_emxFree_boolean_T 000000018006a6cc     c2_flightControlSystem.obj
 0004:000006d8       $pdata$c2_emxFree_creal_T  000000018006a6d8     c2_flightControlSystem.obj
 0004:000006e4       $pdata$c2_emxEnsureCapacity_real32_T 000000018006a6e4     c2_flightControlSystem.obj
 0004:000006f0       $pdata$c2_emxEnsureCapacity_creal_T1 000000018006a6f0     c2_flightControlSystem.obj
 0004:000006fc       $pdata$c2_emxInit_real32_T 000000018006a6fc     c2_flightControlSystem.obj
 0004:00000708       $pdata$c2_emxInit_creal_T1 000000018006a708     c2_flightControlSystem.obj
 0004:00000714       $pdata$c2_emxFree_real32_T 000000018006a714     c2_flightControlSystem.obj
 0004:00000720       $pdata$c2_emxEnsureCapacity_real32_T1 000000018006a720     c2_flightControlSystem.obj
 0004:0000072c       $pdata$c2_emxInit_real32_T1 000000018006a72c     c2_flightControlSystem.obj
 0004:00000738       $pdata$c2_emxEnsureCapacity_int32_T1 000000018006a738     c2_flightControlSystem.obj
 0004:00000744       $pdata$c2_emxInit_sBO2RC5RVZVTbundPSRqHnH 000000018006a744     c2_flightControlSystem.obj
 0004:00000750       $pdata$c2_emxInit_int32_T1 000000018006a750     c2_flightControlSystem.obj
 0004:0000075c       $pdata$c2_emxFree_sBO2RC5RVZVTbundPSRqHnH 000000018006a75c     c2_flightControlSystem.obj
 0004:00000768       $pdata$c2_emxEnsureCapacity_sBO2RC5RVZVTb 000000018006a768     c2_flightControlSystem.obj
 0004:00000774       $pdata$c2_emxFreeStruct_s9uuw2Xu7QLvohu1q 000000018006a774     c2_flightControlSystem.obj
 0004:00000780       $pdata$c2_emxTrim_s9uuw2Xu7QLvohu1q5iD2hG 000000018006a780     c2_flightControlSystem.obj
 0004:0000078c       $pdata$c2_emxInitStruct_s9uuw2Xu7QLvohu1q 000000018006a78c     c2_flightControlSystem.obj
 0004:00000798       $pdata$c2_emxExpand_s9uuw2Xu7QLvohu1q5iD2 000000018006a798     c2_flightControlSystem.obj
 0004:000007a4       $pdata$c2_emxEnsureCapacity_s9uuw2Xu7QLvo 000000018006a7a4     c2_flightControlSystem.obj
 0004:000007b0       $pdata$c2_emxCopyStruct_s9uuw2Xu7QLvohu1q 000000018006a7b0     c2_flightControlSystem.obj
 0004:000007bc       $pdata$c2_emxCopyMatrix_real_T 000000018006a7bc     c2_flightControlSystem.obj
 0004:000007c8       $pdata$c2_emxCopyMatrix_real_T1 000000018006a7c8     c2_flightControlSystem.obj
 0004:000007d4       $pdata$c2_emxCopy_boolean_T_0x0 000000018006a7d4     c2_flightControlSystem.obj
 0004:000007e0       $pdata$c2_emxCopyMatrix_real_T2 000000018006a7e0     c2_flightControlSystem.obj
 0004:000007ec       $pdata$c2_emxCopy_real_T   000000018006a7ec     c2_flightControlSystem.obj
 0004:000007f8       $pdata$c2_emxCopy_real_T1  000000018006a7f8     c2_flightControlSystem.obj
 0004:00000804       $pdata$c2_emxCopy_real_T_1x0 000000018006a804     c2_flightControlSystem.obj
 0004:00000810       $pdata$c2_emxInitStruct_scIvRXQeSh8yxCxSm 000000018006a810     c2_flightControlSystem.obj
 0004:0000081c       $pdata$c2_emxInit_s9uuw2Xu7QLvohu1q5iD2hG 000000018006a81c     c2_flightControlSystem.obj
 0004:00000828       $pdata$c2_emxInitMatrix_cell_wrap_49 000000018006a828     c2_flightControlSystem.obj
 0004:00000834       $pdata$c2_emxInitStruct_cell_wrap_49 000000018006a834     c2_flightControlSystem.obj
 0004:00000840       $pdata$c2_emxFreeStruct_scIvRXQeSh8yxCxSm 000000018006a840     c2_flightControlSystem.obj
 0004:0000084c       $pdata$c2_emxFree_s9uuw2Xu7QLvohu1q5iD2hG 000000018006a84c     c2_flightControlSystem.obj
 0004:00000858       $pdata$c2_emxFreeMatrix_cell_wrap_49 000000018006a858     c2_flightControlSystem.obj
 0004:00000864       $pdata$c2_emxFreeStruct_cell_wrap_49 000000018006a864     c2_flightControlSystem.obj
 0004:00000870       $pdata$c2_div_nzp_s32      000000018006a870     c2_flightControlSystem.obj
 0004:0000087c       $pdata$init_simulink_io_address 000000018006a87c     c2_flightControlSystem.obj
 0004:00000888       $pdata$sf_c2_flightControlSystem_third_party_uses_info 000000018006a888     c2_flightControlSystem.obj
 0004:00000894       $pdata$sf_c2_flightControlSystem_jit_fallback_info 000000018006a894     c2_flightControlSystem.obj
 0004:000008a0       $pdata$sf_c2_flightControlSystem_updateBuildInfo_args_info 000000018006a8a0     c2_flightControlSystem.obj
 0004:000008ac       $pdata$sf_get_sim_state_info_c2_flightControlSystem 000000018006a8ac     c2_flightControlSystem.obj
 0004:000008b8       $pdata$sf_opaque_initialize_c2_flightControlSystem 000000018006a8b8     c2_flightControlSystem.obj
 0004:000008c4       $pdata$sf_opaque_enable_c2_flightControlSystem 000000018006a8c4     c2_flightControlSystem.obj
 0004:000008d0       $pdata$sf_opaque_disable_c2_flightControlSystem 000000018006a8d0     c2_flightControlSystem.obj
 0004:000008dc       $pdata$sf_opaque_gateway_c2_flightControlSystem 000000018006a8dc     c2_flightControlSystem.obj
 0004:000008e8       $pdata$sf_opaque_get_sim_state_c2_flightControlSystem 000000018006a8e8     c2_flightControlSystem.obj
 0004:000008f4       $pdata$sf_opaque_set_sim_state_c2_flightControlSystem 000000018006a8f4     c2_flightControlSystem.obj
 0004:00000900       $pdata$sf_opaque_terminate_c2_flightControlSystem 000000018006a900     c2_flightControlSystem.obj
 0004:0000090c       $pdata$mdlProcessParameters_c2_flightControlSystem 000000018006a90c     c2_flightControlSystem.obj
 0004:00000918       $pdata$mdlSetWorkWidths_c2_flightControlSystem 000000018006a918     c2_flightControlSystem.obj
 0004:00000924       $pdata$mdlRTW_c2_flightControlSystem 000000018006a924     c2_flightControlSystem.obj
 0004:00000930       $pdata$mdlStart_c2_flightControlSystem 000000018006a930     c2_flightControlSystem.obj
 0004:00000ee8       $pdata$_vsnprintf_l        000000018006aee8     flightControlSystem_sfun_registry.obj
 0004:00000ef4       $pdata$_vsprintf_l         000000018006aef4     flightControlSystem_sfun_registry.obj
 0004:00000f00       $pdata$sprintf             000000018006af00     flightControlSystem_sfun_registry.obj
 0004:0000093c       $pdata$mexFunction         000000018006a93c     flightControlSystem_sfun_registry.obj
 0004:00000948       $pdata$_ssSetInputPortDirectFeedThroughFcn 000000018006a948     flightControlSystem_sfun_registry.obj
 0004:00000954       $pdata$_ssSetRWorkValueFcn 000000018006a954     flightControlSystem_sfun_registry.obj
 0004:00000960       $pdata$_ssGetRWorkValueFcn 000000018006a960     flightControlSystem_sfun_registry.obj
 0004:0000096c       $pdata$_ssSetIWorkValueFcn 000000018006a96c     flightControlSystem_sfun_registry.obj
 0004:00000978       $pdata$_ssGetIWorkValueFcn 000000018006a978     flightControlSystem_sfun_registry.obj
 0004:00000984       $pdata$_ssSetPWorkValueFcn 000000018006a984     flightControlSystem_sfun_registry.obj
 0004:00000990       $pdata$_ssGetPWorkValueFcn 000000018006a990     flightControlSystem_sfun_registry.obj
 0004:0000099c       $pdata$_ssGetInputPortSignalFcn 000000018006a99c     flightControlSystem_sfun_registry.obj
 0004:000009a8       $pdata$_ssGetInputPortBufferDstPortFcn 000000018006a9a8     flightControlSystem_sfun_registry.obj
 0004:000009b4       $pdata$_ssGetInputPortSignalPtrsFcn 000000018006a9b4     flightControlSystem_sfun_registry.obj
 0004:000009c0       $pdata$ssGetParameterTuningCompliance 000000018006a9c0     flightControlSystem_sfun_registry.obj
 0004:000009cc       $pdata$ssGetDTypeIdFromMxArray 000000018006a9cc     flightControlSystem_sfun_registry.obj
 0004:000009d8       $pdata$ssWriteRTWMx2dMatParam 000000018006a9d8     flightControlSystem_sfun_registry.obj
 0004:000009e4       $pdata$ssWriteRTWMxVectParam 000000018006a9e4     flightControlSystem_sfun_registry.obj
 0004:000009f0       $pdata$ssWriteRTWParameters 000000018006a9f0     flightControlSystem_sfun_registry.obj
 0004:000009fc       $pdata$ssWriteRTWParamSettings 000000018006a9fc     flightControlSystem_sfun_registry.obj
 0004:00000a08       $pdata$ssWriteRTWStr       000000018006aa08     flightControlSystem_sfun_registry.obj
 0004:00000a14       $pdata$ssWriteRTWWorkVect  000000018006aa14     flightControlSystem_sfun_registry.obj
 0004:00000a20       $pdata$ssWarning           000000018006aa20     flightControlSystem_sfun_registry.obj
 0004:00000a2c       $pdata$ssWriteRTWNameValuePair 000000018006aa2c     flightControlSystem_sfun_registry.obj
 0004:00000a38       $pdata$_ssSetInputPortMatrixDimensions 000000018006aa38     flightControlSystem_sfun_registry.obj
 0004:00000a44       $pdata$_ssSetOutputPortMatrixDimensions 000000018006aa44     flightControlSystem_sfun_registry.obj
 0004:00000a50       $pdata$_ssSetInputPortVectorDimension 000000018006aa50     flightControlSystem_sfun_registry.obj
 0004:00000a5c       $pdata$_ssSetOutputPortVectorDimension 000000018006aa5c     flightControlSystem_sfun_registry.obj
 0004:00000a68       $pdata$ssIsRunTimeParamTunable 000000018006aa68     flightControlSystem_sfun_registry.obj
 0004:00000a74       $pdata$ssGetSFuncBlockHandle 000000018006aa74     flightControlSystem_sfun_registry.obj
 0004:00000a80       $pdata$_ssGetCurrentInputPortWidth 000000018006aa80     flightControlSystem_sfun_registry.obj
 0004:00000a8c       $pdata$_ssGetCurrentOutputPortWidth 000000018006aa8c     flightControlSystem_sfun_registry.obj
 0004:00000a98       $pdata$_ssGetCallSystemNumFcnCallDestinations 000000018006aa98     flightControlSystem_sfun_registry.obj
 0004:00000aa4       $pdata$ssGetIsZeroCrossControlDisabled 000000018006aaa4     flightControlSystem_sfun_registry.obj
 0004:00000ab0       $pdata$ssSetIsInputPortUsedForContZcSignal 000000018006aab0     flightControlSystem_sfun_registry.obj
 0004:00000abc       $pdata$ssSetZcSignalIsZcElementDisc 000000018006aabc     flightControlSystem_sfun_registry.obj
 0004:00000ac8       $pdata$ssSetZcSignalName   000000018006aac8     flightControlSystem_sfun_registry.obj
 0004:00000ad4       $pdata$ssSetZcSignalWidth  000000018006aad4     flightControlSystem_sfun_registry.obj
 0004:00000ae0       $pdata$ssSetZcSignalZcEventType 000000018006aae0     flightControlSystem_sfun_registry.obj
 0004:00000aec       $pdata$ssSetZcSignalType   000000018006aaec     flightControlSystem_sfun_registry.obj
 0004:00000af8       $pdata$ssSetZcSignalZcTol  000000018006aaf8     flightControlSystem_sfun_registry.obj
 0004:00000b04       $pdata$ssSetZcSignalNeedsEventNotification 000000018006ab04     flightControlSystem_sfun_registry.obj
 0004:00000b10       $pdata$ssCreateAndAddZcSignalInfo 000000018006ab10     flightControlSystem_sfun_registry.obj
 0004:00000b1c       $pdata$ssCloneAndAddZcSignalInfo 000000018006ab1c     flightControlSystem_sfun_registry.obj
 0004:00000b28       $pdata$ssGetNumZcSignals   000000018006ab28     flightControlSystem_sfun_registry.obj
 0004:00000b34       $pdata$ssGetZcSignalVector 000000018006ab34     flightControlSystem_sfun_registry.obj
 0004:00000b40       $pdata$ssGetZcSignalName   000000018006ab40     flightControlSystem_sfun_registry.obj
 0004:00000b4c       $pdata$ssGetZcSignalWidth  000000018006ab4c     flightControlSystem_sfun_registry.obj
 0004:00000b58       $pdata$ssGetZcSignalZcEventType 000000018006ab58     flightControlSystem_sfun_registry.obj
 0004:00000b64       $pdata$ssGetZcSignalZcEvents 000000018006ab64     flightControlSystem_sfun_registry.obj
 0004:00000b70       $pdata$ssGetZcSignalType   000000018006ab70     flightControlSystem_sfun_registry.obj
 0004:00000b7c       $pdata$ssGetZcSignalZcTol  000000018006ab7c     flightControlSystem_sfun_registry.obj
 0004:00000b88       $pdata$ssGetZcSignalNeedsEventNotification 000000018006ab88     flightControlSystem_sfun_registry.obj
 0004:00000b94       $pdata$ssGetZcSignalIsZcElementDisc 000000018006ab94     flightControlSystem_sfun_registry.obj
 0004:00000ba0       $pdata$ssGetIsInputPortElementContinuous 000000018006aba0     flightControlSystem_sfun_registry.obj
 0004:00000bac       $pdata$_ssGetAbsTol        000000018006abac     flightControlSystem_sfun_registry.obj
 0004:00000bb8       $pdata$_ssSetInputPortReusableFcn 000000018006abb8     flightControlSystem_sfun_registry.obj
 0004:00000bc4       $pdata$_ssSetOutputPortReusableFcn 000000018006abc4     flightControlSystem_sfun_registry.obj
 0004:00000bd0       $pdata$_ssSetSymbolicDimsSupport 000000018006abd0     flightControlSystem_sfun_registry.obj
 0004:00000bdc       $pdata$_ssRegisterSymbolicDimsExpr 000000018006abdc     flightControlSystem_sfun_registry.obj
 0004:00000be8       $pdata$_ssRegisterSymbolicDims 000000018006abe8     flightControlSystem_sfun_registry.obj
 0004:00000bf4       $pdata$_ssRegisterSymbolicDimsString 000000018006abf4     flightControlSystem_sfun_registry.obj
 0004:00000c00       $pdata$_ssRegisterSymbolicDimsIntValue 000000018006ac00     flightControlSystem_sfun_registry.obj
 0004:00000c0c       $pdata$_ssRegisterSymbolicDimsPlus 000000018006ac0c     flightControlSystem_sfun_registry.obj
 0004:00000c18       $pdata$_ssRegisterSymbolicDimsMinus 000000018006ac18     flightControlSystem_sfun_registry.obj
 0004:00000c24       $pdata$_ssRegisterSymbolicDimsMultiply 000000018006ac24     flightControlSystem_sfun_registry.obj
 0004:00000c30       $pdata$_ssRegisterSymbolicDimsDivide 000000018006ac30     flightControlSystem_sfun_registry.obj
 0004:00000c3c       $pdata$_ssGetNumSymbolicDims 000000018006ac3c     flightControlSystem_sfun_registry.obj
 0004:00000c48       $pdata$_ssGetSymbolicDim   000000018006ac48     flightControlSystem_sfun_registry.obj
 0004:00000c54       $pdata$_ssSetInputPortSymbolicDimsId 000000018006ac54     flightControlSystem_sfun_registry.obj
 0004:00000c60       $pdata$_ssGetCompInputPortSymbolicDimsId 000000018006ac60     flightControlSystem_sfun_registry.obj
 0004:00000c6c       $pdata$_ssSetCompInputPortSymbolicDimsId 000000018006ac6c     flightControlSystem_sfun_registry.obj
 0004:00000c78       $pdata$_ssSetOutputPortSymbolicDimsId 000000018006ac78     flightControlSystem_sfun_registry.obj
 0004:00000c84       $pdata$_ssGetCompOutputPortSymbolicDimsId 000000018006ac84     flightControlSystem_sfun_registry.obj
 0004:00000c90       $pdata$_ssSetCompOutputPortSymbolicDimsId 000000018006ac90     flightControlSystem_sfun_registry.obj
 0004:00000c9c       $pdata$_ssSetCompDWorkSymbolicDimsId 000000018006ac9c     flightControlSystem_sfun_registry.obj
 0004:00000ca8       $pdata$sf_process_check_sum_call 000000018006aca8     flightControlSystem_sfun_registry.obj
 0004:00000cb4       $pdata$sf_process_get_third_party_uses_info_call 000000018006acb4     flightControlSystem_sfun_registry.obj
 0004:00000cc0       $pdata$sf_process_get_jit_fallback_info_call 000000018006acc0     flightControlSystem_sfun_registry.obj
 0004:00000ccc       $pdata$sf_process_get_post_codegen_info_call 000000018006accc     flightControlSystem_sfun_registry.obj
 0004:00000cd8       $pdata$sf_process_get_updateBuildInfo_args_info_call 000000018006acd8     flightControlSystem_sfun_registry.obj
 0004:00000ce4       $pdata$sf_process_get_eml_resolved_functions_info_call 000000018006ace4     flightControlSystem_sfun_registry.obj
 0004:00000cf0       $pdata$sf_mex_unlock_call  000000018006acf0     flightControlSystem_sfun_registry.obj
 0004:00000cfc       $pdata$sf_debug_api_wrapper 000000018006acfc     flightControlSystem_sfun_registry.obj
 0004:00000d08       $pdata$ProcessMexSfunctionCmdLineCall 000000018006ad08     flightControlSystem_sfun_registry.obj
 0004:00000d14       $pdata$sf_machine_global_initializer_called 000000018006ad14     flightControlSystem_sfun_registry.obj
 0004:00000d20       $pdata$sf_machine_global_method_dispatcher 000000018006ad20     flightControlSystem_sfun_registry.obj
 0004:00000d2c       $pdata$sf_machine_global_terminator 000000018006ad2c     flightControlSystem_sfun_registry.obj
 0004:00000d38       $pdata$sf_register_machine_exported_symbols 000000018006ad38     flightControlSystem_sfun_registry.obj
 0004:00000d44       $pdata$sf_machine_global_initializer 000000018006ad44     flightControlSystem_sfun_registry.obj
 0004:00000d50       $pdata$mdlGetSimState      000000018006ad50     flightControlSystem_sfun_registry.obj
 0004:00000d5c       $pdata$mdlSetSimState      000000018006ad5c     flightControlSystem_sfun_registry.obj
 0004:00000d68       $pdata$mdlSetWorkWidths    000000018006ad68     flightControlSystem_sfun_registry.obj
 0004:00000d74       $pdata$mdlProcessParameters 000000018006ad74     flightControlSystem_sfun_registry.obj
 0004:00000d80       $pdata$mdl_start_processing 000000018006ad80     flightControlSystem_sfun_registry.obj
 0004:00000d8c       $pdata$mdl_terminate_processing 000000018006ad8c     flightControlSystem_sfun_registry.obj
 0004:00000d98       $pdata$mdlStart            000000018006ad98     flightControlSystem_sfun_registry.obj
 0004:00000da4       $pdata$mdlTerminate        000000018006ada4     flightControlSystem_sfun_registry.obj
 0004:00000db0       $pdata$mdlInitializeSizes  000000018006adb0     flightControlSystem_sfun_registry.obj
 0004:00000dbc       $pdata$mdlInitializeSampleTimes 000000018006adbc     flightControlSystem_sfun_registry.obj
 0004:00000dc8       $pdata$mdl_outputs_continuous_legacy 000000018006adc8     flightControlSystem_sfun_registry.obj
 0004:00000dd4       $pdata$mdl_outputs_processing 000000018006add4     flightControlSystem_sfun_registry.obj
 0004:00000de0       $pdata$mdl_zeroCrossings_processing 000000018006ade0     flightControlSystem_sfun_registry.obj
 0004:00000dec       $pdata$mdlZeroCrossings    000000018006adec     flightControlSystem_sfun_registry.obj
 0004:00000df8       $pdata$mdl_derivatives_processing 000000018006adf8     flightControlSystem_sfun_registry.obj
 0004:00000e04       $pdata$mdlDerivatives      000000018006ae04     flightControlSystem_sfun_registry.obj
 0004:00000e10       $pdata$mdl_initialize_conditions_processing 000000018006ae10     flightControlSystem_sfun_registry.obj
 0004:00000e1c       $pdata$mdlInitializeConditions 000000018006ae1c     flightControlSystem_sfun_registry.obj
 0004:00000e28       $pdata$mdl_ext_mode_exec_processing 000000018006ae28     flightControlSystem_sfun_registry.obj
 0004:00000e34       $pdata$mdlExtModeExec      000000018006ae34     flightControlSystem_sfun_registry.obj
 0004:00000e40       $pdata$mdlRTW              000000018006ae40     flightControlSystem_sfun_registry.obj
 0004:00000e4c       $pdata$mdl_enable_processing 000000018006ae4c     flightControlSystem_sfun_registry.obj
 0004:00000e58       $pdata$mdlEnable           000000018006ae58     flightControlSystem_sfun_registry.obj
 0004:00000e64       $pdata$mdl_disable_processing 000000018006ae64     flightControlSystem_sfun_registry.obj
 0004:00000e70       $pdata$mdlDisable          000000018006ae70     flightControlSystem_sfun_registry.obj
 0004:00000e7c       $pdata$mdlOutputs          000000018006ae7c     flightControlSystem_sfun_registry.obj
 0004:00000e88       $pdata$mdl_update_processing 000000018006ae88     flightControlSystem_sfun_registry.obj
 0004:00000e94       $pdata$mdlUpdate           000000018006ae94     flightControlSystem_sfun_registry.obj
 0004:00000ea0       $pdata$ProcessMexSfunctionEveryCall 000000018006aea0     flightControlSystem_sfun_registry.obj
 0004:00000eac       $pdata$_RegNumInputPortsCB 000000018006aeac     flightControlSystem_sfun_registry.obj
 0004:00000eb8       $pdata$_RegNumOutputPortsCB 000000018006aeb8     flightControlSystem_sfun_registry.obj
 0004:00000ec4       $pdata$_CreateSimStruct    000000018006aec4     flightControlSystem_sfun_registry.obj
 0004:00000ed0       $pdata$_ProcessMexSfunctionCmdLineCall 000000018006aed0     flightControlSystem_sfun_registry.obj
 0004:00000edc       $pdata$ReportIndexOutOfBoundsError 000000018006aedc     flightControlSystem_sfun_registry.obj
 0004:00000f30       $pdata$__report_securityfailure 000000018006af30     MSVCRT:gs_report.obj
 0004:00000f3c       $pdata$__report_securityfailureEx 000000018006af3c     MSVCRT:gs_report.obj
 0004:00000f24       $pdata$__report_rangecheckfailure 000000018006af24     MSVCRT:gs_report.obj
 0004:00000f18       $pdata$__report_gsfailure  000000018006af18     MSVCRT:gs_report.obj
 0004:00000f48       $pdata$capture_current_context 000000018006af48     MSVCRT:gs_report.obj
 0004:00000f54       $pdata$capture_previous_context 000000018006af54     MSVCRT:gs_report.obj
 0004:00000f0c       $pdata$__raise_securityfailure 000000018006af0c     MSVCRT:gs_report.obj
 0004:00000f6c       $pdata$__GSHandlerCheckCommon 000000018006af6c     MSVCRT:_gshandler_.obj
 0004:00000f60       $pdata$__GSHandlerCheck    000000018006af60     MSVCRT:_gshandler_.obj
 0004:00000f9c       $pdata$?dllmain_crt_process_attach@@YAHQEAUHINSTANCE__@@QEAX@Z 000000018006af9c     MSVCRT:dll_dllmain.obj
 0004:0000111c       $pdata$?fin$0@?0??dllmain_crt_process_attach@@YAHQEAUHINSTANCE__@@QEAX@Z@4HA 000000018006b11c     MSVCRT:dll_dllmain.obj
 0004:00000fa8       $pdata$?dllmain_crt_process_detach@@YAH_N@Z 000000018006afa8     MSVCRT:dll_dllmain.obj
 0004:00001128       $pdata$?fin$0@?0??dllmain_crt_process_detach@@YAH_N@Z@4HA 000000018006b128     MSVCRT:dll_dllmain.obj
 0004:00000f90       $pdata$?dllmain_crt_dispatch@@YAHQEAUHINSTANCE__@@KQEAX@Z 000000018006af90     MSVCRT:dll_dllmain.obj
 0004:00000fb4       $pdata$?dllmain_dispatch@@YAHQEAUHINSTANCE__@@KQEAX@Z 000000018006afb4     MSVCRT:dll_dllmain.obj
 0004:00001134       $pdata$?filt$0@?0??dllmain_dispatch@@YAHQEAUHINSTANCE__@@KQEAX@Z@4HA 000000018006b134     MSVCRT:dll_dllmain.obj
 0004:00000fc0       $pdata$_DllMainCRTStartup  000000018006afc0     MSVCRT:dll_dllmain.obj
 0004:00000fd8       $pdata$__security_init_cookie 000000018006afd8     MSVCRT:gs_support.obj
 0004:00000fcc       $pdata$__get_entropy       000000018006afcc     MSVCRT:gs_support.obj
 0004:00000fe4       $pdata$DllMain             000000018006afe4     MSVCRT:dll_dllmain_stub.obj
 0004:00000ff0       $pdata$__scrt_initialize_default_local_stdio_options 000000018006aff0     MSVCRT:default_local_stdio_options.obj
 0004:000010b0       $pdata$atexit              000000018006b0b0     MSVCRT:utility.obj
 0004:000010a4       $pdata$_onexit             000000018006b0a4     MSVCRT:utility.obj
 0004:00001080       $pdata$__scrt_is_nonwritable_in_current_image 000000018006b080     MSVCRT:utility.obj
 0004:00001140       $pdata$__scrt_is_nonwritable_in_current_image$filt$0 000000018006b140     MSVCRT:utility.obj
 0004:00001008       $pdata$__scrt_acquire_startup_lock 000000018006b008     MSVCRT:utility.obj
 0004:0000108c       $pdata$__scrt_release_startup_lock 000000018006b08c     MSVCRT:utility.obj
 0004:00001068       $pdata$__scrt_initialize_crt 000000018006b068     MSVCRT:utility.obj
 0004:00001098       $pdata$__scrt_uninitialize_crt 000000018006b098     MSVCRT:utility.obj
 0004:00001074       $pdata$__scrt_initialize_onexit_tables 000000018006b074     MSVCRT:utility.obj
 0004:00001044       $pdata$__scrt_dllmain_exception_filter 000000018006b044     MSVCRT:utility.obj
 0004:00001020       $pdata$__scrt_dllmain_before_initialize_c 000000018006b020     MSVCRT:utility.obj
 0004:00001014       $pdata$__scrt_dllmain_after_initialize_c 000000018006b014     MSVCRT:utility.obj
 0004:00001050       $pdata$__scrt_dllmain_uninitialize_c 000000018006b050     MSVCRT:utility.obj
 0004:0000105c       $pdata$__scrt_dllmain_uninitialize_critical 000000018006b05c     MSVCRT:utility.obj
 0004:0000102c       $pdata$__scrt_dllmain_crt_thread_attach 000000018006b02c     MSVCRT:utility.obj
 0004:00001038       $pdata$__scrt_dllmain_crt_thread_detach 000000018006b038     MSVCRT:utility.obj
 0004:00000ffc       $pdata$?configure_argv@__scrt_narrow_argv_policy@@SAHXZ 000000018006affc     MSVCRT:utility.obj
 0004:000010c8       $pdata$__scrt_get_show_window_mode 000000018006b0c8     MSVCRT:utility_desktop.obj
 0004:000010d4       $pdata$__scrt_is_managed_app 000000018006b0d4     MSVCRT:utility_desktop.obj
 0004:000010bc       $pdata$__scrt_fastfail     000000018006b0bc     MSVCRT:utility_desktop.obj
 0004:000010e0       $pdata$__scrt_unhandled_exception_filter 000000018006b0e0     MSVCRT:utility_desktop.obj
 0004:000010ec       $pdata$_RTC_Initialize     000000018006b0ec     MSVCRT:_initsect_.obj
 0004:000010f8       $pdata$_RTC_Terminate      000000018006b0f8     MSVCRT:_initsect_.obj
 0004:00001104       $pdata$__isa_available_init 000000018006b104     MSVCRT:_cpu_disp_.obj
